(dp1
S'1251'
p2
(dp3
S'ml_editors_rank'
p4
I0
sS'author'
p5
S'William Kotzwinkle'
p6
sS'ml_readers_rank'
p7
I0
sS'pub_prog_rank'
p8
I0
sS'exp_rank'
p9
I0
sS'year'
p10
I1982
sS'num_lists'
p11
S'1.0'
p12
sS'title'
p13
S'e.t., the extraterrestrial'
p14
sS'gender'
p15
S'Male'
p16
sS'bestsellers_rank'
p17
I65
sS'natl'
p18
S'European American'
p19
ssS'1141'
p20
(dp21
g4
I0
sg5
S'James Kahn'
p22
sg7
I0
sg8
I0
sg9
I0
sg10
I1983
sg11
S'1.0'
p23
sg13
S'return of the jedi'
p24
sg15
S'Male'
p25
sg17
I66
sg18
S'European American'
p26
ssS'212'
p27
(dp28
g4
I81
sg5
S'Saul Bellow'
p29
sg7
I0
sg8
I0
sg9
I0
sg10
I1953
sg11
S'1.0'
p30
sg13
S'the adventures of augie march'
p31
sg15
S'Male'
p32
sg17
I0
sg18
S'European American'
p33
ssS'946'
p34
(dp35
g4
I0
sg5
S'Robert Heinlein'
p36
sg7
I15
sg8
I0
sg9
I0
sg10
I1966
sg11
S'1.0'
p37
sg13
S'the moon is a harsh mistress'
p38
sg15
S'Male'
p39
sg17
I0
sg18
S'European American'
p40
ssS'211'
p41
(dp42
g4
I21
sg5
S'Saul Bellow'
p43
sg7
I0
sg8
I0
sg9
I0
sg10
I1959
sg11
S'1.0'
p44
sg13
S'henderson the rain king'
p45
sg15
S'Male'
p46
sg17
I0
sg18
S'European American'
p47
ssS'762'
p48
(dp49
g4
I30
sg5
S'Ford Madox Ford'
p50
sg7
I0
sg8
I0
sg9
I0
sg10
I1915
sg11
S'1.0'
p51
sg13
S'the good soldier'
p52
sg15
S'Male'
p53
sg17
I0
sg18
S'British'
p54
ssS'1781'
p55
(dp56
g4
I0
sg5
S'Jack Schaefer'
p57
sg7
I26
sg8
I0
sg9
I0
sg10
I1949
sg11
S'1.0'
p58
sg13
S'shane'
p59
sg15
S'Male'
p60
sg17
I0
sg18
S'European American'
p61
ssS'1261'
p62
(dp63
g4
I0
sg5
S'Jerry B. Jenkins and Tim LaHaye'
p64
sg7
I0
sg8
I0
sg9
I0
sg10
I2001
sg11
S'1.0'
p65
sg13
S'desecration'
p66
sg15
S'Male'
p67
sg17
I84
sg18
S'European American'
p68
ssS'761'
p69
(dp70
g4
I57
sg5
S'Ford Madox Ford'
p71
sg7
I0
sg8
I0
sg9
I0
sg10
I1925
sg11
S'1.0'
p72
sg13
S"parade's end"
p73
sg15
S'Male'
p74
sg17
I0
sg18
S'British'
p75
ssS'661'
p76
(dp77
g4
I0
sg5
S'Stanley Elkin'
p78
sg7
I0
sg8
I0
sg9
I68
sg10
I1976
sg11
S'1.0'
p79
sg13
S'the franchiser'
p80
sg15
S'Male'
p81
sg17
I0
sg18
S'European American'
p82
ssS'1961'
p83
(dp84
g4
I0
sg5
S'Morton Thompson'
p85
sg7
I0
sg8
I0
sg9
I0
sg10
I1954
sg11
S'1.0'
p86
sg13
S'not as a stranger'
p87
sg15
S'Male'
p88
sg17
I38
sg18
S'European American'
p89
ssS'1911'
p90
(dp91
g4
I96
sg5
S'William Styron'
p92
sg7
I0
sg8
I57
sg9
I0
sg10
I1979
sg11
S'2.0'
p93
sg13
S"sophie's choice"
p94
sg15
S'Male'
p95
sg17
I0
sg18
S'European American'
p96
ssS'131'
p97
(dp98
g4
I39
sg5
S'James Baldwin'
p99
sg7
I0
sg8
I36
sg9
I0
sg10
I1953
sg11
S'2.0'
p100
sg13
S'go tell it on the mountain'
p101
sg15
S'Male'
p102
sg17
I0
sg18
S'African American'
p103
ssS'2091'
p104
(dp105
g4
I0
sg5
S'H. G. Wells'
p106
sg7
I0
sg8
I0
sg9
I0
sg10
I1917
sg11
S'1.0'
p107
sg13
S'mr. britling sees it through'
p108
sg15
S'Male'
p109
sg17
I5
sg18
S'British'
p110
ssS'2092'
p111
(dp112
g4
I0
sg5
S'H.G. Wells'
p113
sg7
I0
sg8
I85
sg9
I0
sg10
I1898
sg11
S'1.0'
p114
sg13
S'the war of the worlds'
p115
sg15
S'Male'
p116
sg17
I0
sg18
S'British'
p117
ssS'2221'
p118
(dp119
g4
I0
sg5
S'Herman Wouk'
p120
sg7
I0
sg8
I0
sg9
I0
sg10
I1955
sg11
S'1.0'
p121
sg13
S'marjorie morningstar'
p122
sg15
S'Male'
p123
sg17
I39
sg18
S'European American'
p124
ssS'491'
p125
(dp126
g4
I0
sg5
S'Robertson Davies'
p127
sg7
I40
sg8
I0
sg9
I0
sg10
I1970
sg11
S'1.0'
p128
sg13
S'fifth business'
p129
sg15
S'Male'
p130
sg17
I0
sg18
S'European Canadian'
p131
ssS'492'
p132
(dp133
g4
I0
sg5
S'Robertson Davies'
p134
sg7
I99
sg8
I0
sg9
I0
sg10
I1994
sg11
S'1.0'
p135
sg13
S'the cunning man'
p136
sg15
S'Male'
p137
sg17
I0
sg18
S'European Canadian'
p138
ssS'1831'
p139
(dp140
g4
I0
sg5
S'Gilbert Sorrentino'
p141
sg7
I0
sg8
I0
sg9
I94
sg10
I1979
sg11
S'1.0'
p142
sg13
S'mulligan stew'
p143
sg15
S'Male'
p144
sg17
I0
sg18
S'European American'
p145
ssS'1771'
p146
(dp147
g4
I0
sg5
S'J.D. Salinger'
p148
sg7
I0
sg8
I54
sg9
I0
sg10
I1961
sg11
S'1.0'
p149
sg13
S'franny and zooey'
p150
sg15
S'Male'
p151
sg17
I0
sg18
S'European American'
p152
ssS'21'
p153
(dp154
g4
I0
sg5
S'Kathy Acker'
p155
sg7
I0
sg8
I0
sg9
I99
sg10
I1990
sg11
S'1.0'
p156
sg13
S'in memoriam to identity'
p157
sg15
S'Female'
p158
sg17
I0
sg18
S'European American'
p159
ssS'1772'
p160
(dp161
g4
I64
sg5
S'J.D. Salinger'
p162
sg7
I19
sg8
I2
sg9
I60
sg10
I1951
sg11
S'4.0'
p163
sg13
S'the catcher in the rye'
p164
sg15
S'Male'
p165
sg17
I0
sg18
S'European American'
p166
ssS'1942'
p167
(dp168
g4
I100
sg5
S'Booth Tarkington'
p169
sg7
I0
sg8
I0
sg9
I0
sg10
I1918
sg11
S'1.0'
p170
sg13
S'the magnificent ambersons'
p171
sg15
S'Male'
p172
sg17
I0
sg18
S'European American'
p173
ssS'1943'
p174
(dp175
g4
I0
sg5
S'Booth Tarkington'
p176
sg7
I0
sg8
I0
sg9
I0
sg10
I1915
sg11
S'1.0'
p177
sg13
S'the turmoil'
p178
sg15
S'Male'
p179
sg17
I3
sg18
S'European American'
p180
ssS'1941'
p181
(dp182
g4
I0
sg5
S'Booth Tarkington'
p183
sg7
I0
sg8
I0
sg9
I0
sg10
I1916
sg11
S'1.0'
p184
sg13
S'seventeen'
p185
sg15
S'Male'
p186
sg17
I4
sg18
S'European American'
p187
ssS'1072'
p188
(dp189
g4
I0
sg5
S'John Irving'
p190
sg7
I64
sg8
I37
sg9
I0
sg10
I1978
sg11
S'2.0'
p191
sg13
S'the world according to garp'
p192
sg15
S'Male'
p193
sg17
I0
sg18
S'European American'
p194
ssS'1071'
p195
(dp196
g4
I0
sg5
S'John Irving'
p197
sg7
I28
sg8
I0
sg9
I0
sg10
I1989
sg11
S'1.0'
p198
sg13
S'a prayer for owen meany'
p199
sg15
S'Male'
p200
sg17
I0
sg18
S'European American'
p201
ssS'1371'
p202
(dp203
g4
I11
sg5
S'Malcolm Lowry'
p204
sg7
I39
sg8
I0
sg9
I14
sg10
I1949
sg11
S'3.0'
p205
sg13
S'under the volcano'
p206
sg15
S'Male'
p207
sg17
I0
sg18
S'British'
p208
ssS'541'
p209
(dp210
g4
I42
sg5
S'James Dickey'
p211
sg7
I0
sg8
I0
sg9
I0
sg10
I1970
sg11
S'1.0'
p212
sg13
S'deliverance'
p213
sg15
S'Male'
p214
sg17
I0
sg18
S'European American'
p215
ssS'2151'
p216
(dp217
g4
I37
sg5
S'Thornton Wilder'
p218
sg7
I0
sg8
I0
sg9
I0
sg10
I1928
sg11
S'2.0'
p219
sg13
S'the bridge of san luis rey'
p220
sg15
S'Male'
p221
sg17
I16
sg18
S'European American'
p222
ssS'401'
p223
(dp224
g4
I0
sg5
S'Winston Churchill    '
p225
sg7
I0
sg8
I0
sg9
I0
sg10
I1913
sg11
S'1.0'
p226
sg13
S'the inside of the cup'
p227
sg15
S'Male'
p228
sg17
I1
sg18
S'European American'
p229
ssS'1801'
p230
(dp231
g4
I0
sg5
S'Nevil Shute'
p232
sg7
I17
sg8
I0
sg9
I0
sg10
I1950
sg11
S'1.0'
p233
sg13
S'a town like alice'
p234
sg15
S'Male'
p235
sg17
I0
sg18
S'British'
p236
ssS'281'
p237
(dp238
g4
I0
sg5
S'Pearl S. Buck'
p239
sg7
I0
sg8
I0
sg9
I0
sg10
I1931
sg11
S'1.0'
p240
sg13
S'the good earth'
p241
sg15
S'Female'
p242
sg17
I19
sg18
S'European American'
p243
ssS'811'
p244
(dp245
g4
I0
sg5
S'A. Hamilton Gibbs'
p246
sg7
I0
sg8
I0
sg9
I0
sg10
I1925
sg11
S'1.0'
p247
sg13
S'soundings'
p248
sg15
S'Male'
p249
sg17
I13
sg18
S'British'
p250
ssS'931'
p251
(dp252
g4
I0
sg5
S'John Hawkes'
p253
sg7
I0
sg8
I0
sg9
I49
sg10
I1949
sg11
S'1.0'
p254
sg13
S'the cannibal'
p255
sg15
S'Male'
p256
sg17
I0
sg18
S'European American'
p257
ssS'1461'
p258
(dp259
g4
I0
sg5
S'Paul Metcalf'
p260
sg7
I0
sg8
I0
sg9
I43
sg10
I1965
sg11
S'1.0'
p261
sg13
S'genoa'
p262
sg15
S'Male'
p263
sg17
I0
sg18
S'European American'
p264
ssS'1671'
p265
(dp266
g4
I0
sg5
S'Marjorie Kinnan Rawlings'
p267
sg7
I0
sg8
I0
sg9
I0
sg10
I1938
sg11
S'1.0'
p268
sg13
S'the yearling'
p269
sg15
S'Female'
p270
sg17
I23
sg18
S'European American'
p271
ssS'1521'
p272
(dp273
g4
I0
sg5
S'Toni Morrison'
p274
sg7
I31
sg8
I7
sg9
I12
sg10
I1986
sg11
S'3.0'
p275
sg13
S'beloved'
p276
sg15
S'Female'
p277
sg17
I0
sg18
S'African American'
p278
ssS'964'
p279
(dp280
g4
I0
sg5
S'Ernest Hemingway'
p281
sg7
I0
sg8
I32
sg9
I0
sg10
I1951
sg11
S'1.0'
p282
sg13
S'the old man and the sea'
p283
sg15
S'Male'
p284
sg17
I0
sg18
S'European American'
p285
ssS'991'
p286
(dp287
g4
I0
sg5
S'Ursula K. Le Guin'
p288
sg7
I0
sg8
I0
sg9
I57
sg10
I1985
sg11
S'1.0'
p289
sg13
S'always coming home'
p290
sg15
S'Female'
p291
sg17
I0
sg18
S'European American'
p292
ssS'1441'
p293
(dp294
g4
I17
sg5
S'Carson McCullers'
p295
sg7
I52
sg8
I0
sg9
I0
sg10
I1940
sg11
S'2.0'
p296
sg13
S'the heart is a lonely hunter'
p297
sg15
S'Female'
p298
sg17
I0
sg18
S'European American'
p299
ssS'1311'
p300
(dp301
g4
I0
sg5
S'Harper Lee'
p302
sg7
I5
sg8
I4
sg9
I0
sg10
I1960
sg11
S'2.0'
p303
sg13
S'to kill a mockingbird'
p304
sg15
S'Female'
p305
sg17
I0
sg18
S'European American'
p306
ssS'2212'
p307
(dp308
g4
I0
sg5
S'Virginia Woolf'
p309
sg7
I0
sg8
I63
sg9
I0
sg10
I1928
sg11
S'1.0'
p310
sg13
S'orlando'
p311
sg15
S'Female'
p312
sg17
I0
sg18
S'British'
p313
ssS'1221'
p314
(dp315
g4
I78
sg5
S'Rudyard Kipling'
p316
sg7
I0
sg8
I95
sg9
I0
sg10
I1901
sg11
S'2.0'
p317
sg13
S'kim'
p318
sg15
S'Male'
p319
sg17
I0
sg18
S'British'
p320
ssS'1791'
p321
(dp322
g4
I0
sg5
S'Erich Segal'
p323
sg7
I0
sg8
I0
sg9
I0
sg10
I1970
sg11
S'1.0'
p324
sg13
S'love story'
p325
sg15
S'Male'
p326
sg17
I54
sg18
S'European American'
p327
ssS'1523'
p328
(dp329
g4
I0
sg5
S'Toni Morrison'
p330
sg7
I0
sg8
I25
sg9
I0
sg10
I1977
sg11
S'1.0'
p331
sg13
S'song of solomon'
p332
sg15
S'Female'
p333
sg17
I0
sg18
S'African American'
p334
ssS'1212'
p335
(dp336
g4
I0
sg5
S'Stephen King'
p337
sg7
I84
sg8
I0
sg9
I0
sg10
I1986
sg11
S'2.0'
p338
sg13
S'it'
p339
sg15
S'Male'
p340
sg17
I69
sg18
S'European American'
p341
ssS'671'
p342
(dp343
g4
I0
sg5
S'Brett Easton Ellis'
p344
sg7
I0
sg8
I0
sg9
I76
sg10
I1991
sg11
S'1.0'
p345
sg13
S'american psycho'
p346
sg15
S'Male'
p347
sg17
I0
sg18
S'European American'
p348
ssS'711'
p349
(dp350
g4
I29
sg5
S'James T. Farrell'
p351
sg7
I0
sg8
I0
sg9
I0
sg10
I1933
sg11
S'1.0'
p352
sg13
S'the studs lonigan trilogy'
p353
sg15
S'Male'
p354
sg17
I0
sg18
S'European American'
p355
ssS'1491'
p356
(dp357
g4
I0
sg5
S'A.A. Milne'
p358
sg7
I0
sg8
I22
sg9
I0
sg10
I1926
sg11
S'1.0'
p359
sg13
S'winnie-the-pooh'
p360
sg15
S'Male'
p361
sg17
I0
sg18
S'British'
p362
ssS'122'
p363
(dp364
g4
I0
sg5
S'Richard Bach*'
p365
sg7
I0
sg8
I0
sg9
I0
sg10
I1973
sg11
S'1.0'
p366
sg13
S'johnathan livingston seagull'
p367
sg15
S'Male'
p368
sg17
I56
sg18
S'European American'
p369
ssS'1951'
p370
(dp371
g4
I0
sg5
S'Alexander Theroux'
p372
sg7
I0
sg8
I0
sg9
I84
sg10
I1981
sg11
S'1.0'
p373
sg13
S"darconville's cat"
p374
sg15
S'Male'
p375
sg17
I0
sg18
S'European American'
p376
ssS'2021'
p377
(dp378
g4
I0
sg5
S'Kurt Vonnegut'
p379
sg7
I0
sg8
I66
sg9
I0
sg10
I1963
sg11
S'1.0'
p380
sg13
S"cat's cradle"
p381
sg15
S'Male'
p382
sg17
I0
sg18
S'European American'
p383
ssS'1021'
p384
(dp385
g4
I71
sg5
S'Richard Hughes'
p386
sg7
I0
sg8
I0
sg9
I0
sg10
I1929
sg11
S'1.0'
p387
sg13
S'a high wind in jamaica'
p388
sg15
S'Male'
p389
sg17
I0
sg18
S'British'
p390
ssS'442'
p391
(dp392
g4
I85
sg5
S'Joseph Conrad'
p393
sg7
I0
sg8
I86
sg9
I0
sg10
I1900
sg11
S'2.0'
p394
sg13
S'lord jim'
p395
sg15
S'Male'
p396
sg17
I0
sg18
S'British'
p397
ssS'2071'
p398
(dp399
g4
I36
sg5
S'Robert Penn Warren'
p400
sg7
I0
sg8
I38
sg9
I0
sg10
I1946
sg11
S'2.0'
p401
sg13
S"all the king's men"
p402
sg15
S'Male'
p403
sg17
I0
sg18
S'European American'
p404
ssS'1472'
p405
(dp406
g4
I0
sg5
S'James A. Michener'
p407
sg7
I0
sg8
I0
sg9
I0
sg10
I1978
sg11
S'1.0'
p408
sg13
S'chesapeake'
p409
sg15
S'Male'
p410
sg17
I61
sg18
S'European American'
p411
ssS'1551'
p412
(dp413
g4
I83
sg5
S'V.S. Naipaul'
p414
sg7
I0
sg8
I0
sg9
I0
sg10
I1979
sg11
S'1.0'
p415
sg13
S'a bend in the river'
p416
sg15
S'Male'
p417
sg17
I0
sg18
S'Caribbean British'
p418
ssS'1701'
p419
(dp420
g4
I94
sg5
S'Jean Rhys'
p421
sg7
I0
sg8
I81
sg9
I0
sg10
I1966
sg11
S'2.0'
p422
sg13
S'wide sargasso sea'
p423
sg15
S'Female'
p424
sg17
I0
sg18
S'British'
p425
ssS'1552'
p426
(dp427
g4
I72
sg5
S'V.S. Naipaul'
p428
sg7
I0
sg8
I0
sg9
I0
sg10
I1961
sg11
S'1.0'
p429
sg13
S'a house for mr biswas'
p430
sg15
S'Male'
p431
sg17
I0
sg18
S'Caribbean British'
p432
ssS'2191'
p433
(dp434
g4
I0
sg5
S'Thomas Wolfe'
p435
sg7
I0
sg8
I76
sg9
I95
sg10
I1928
sg11
S'2.0'
p436
sg13
S'look homeward, angel'
p437
sg15
S'Male'
p438
sg17
I0
sg18
S'European American'
p439
ssS'1921'
p440
(dp441
g4
I0
sg5
S'Ronald Sukenick'
p442
sg7
I0
sg8
I0
sg9
I85
sg10
I1968
sg11
S'1.0'
p443
sg13
S'up'
p444
sg15
S'Male'
p445
sg17
I0
sg18
S'European Canadian'
p446
ssS'1652'
p447
(dp448
g4
I0
sg5
S'Thomas Pynchon'
p449
sg7
I85
sg8
I0
sg9
I0
sg10
I1963
sg11
S'1.0'
p450
sg13
S'v.'
p451
sg15
S'Male'
p452
sg17
I0
sg18
S'European American'
p453
ssS'1821'
p454
(dp455
g4
I0
sg5
S'Lillian Smith'
p456
sg7
I0
sg8
I0
sg9
I0
sg10
I1944
sg11
S'1.0'
p457
sg13
S'strange fruit'
p458
sg15
S'Female'
p459
sg17
I29
sg18
S'European American'
p460
ssS'1011'
p461
(dp462
g4
I0
sg5
S'L. Ron Hubbard'
p463
sg7
I3
sg8
I0
sg9
I0
sg10
I1982
sg11
S'1.0'
p464
sg13
S'battlefield earth'
p465
sg15
S'Male'
p466
sg17
I0
sg18
S'European American'
p467
ssS'1061'
p468
(dp469
g4
I0
sg5
S'Vicente Blasco Ibanez'
p470
sg7
I0
sg8
I0
sg9
I0
sg10
I1919
sg11
S'1.0'
p471
sg13
S'the four horsemen of the apocalypse'
p472
sg15
S'Male'
p473
sg17
I7
sg18
S'Spanish'
p474
ssS'1611'
p475
(dp476
g4
I60
sg5
S'Walker Percy'
p477
sg7
I49
sg8
I0
sg9
I0
sg10
I1961
sg11
S'2.0'
p478
sg13
S'the moviegoer'
p479
sg15
S'Male'
p480
sg17
I0
sg18
S'European American'
p481
ssS'951'
p482
(dp483
g4
I7
sg5
S'Joseph Heller'
p484
sg7
I12
sg8
I15
sg9
I29
sg10
I1961
sg11
S'4.0'
p485
sg13
S'catch-22'
p486
sg15
S'Male'
p487
sg17
I0
sg18
S'European American'
p488
ssS'1391'
p489
(dp490
g4
I51
sg5
S'Norman Mailer'
p491
sg7
I0
sg8
I80
sg9
I89
sg10
I1948
sg11
S'3.0'
p492
sg13
S'the naked and the dead'
p493
sg15
S'Male'
p494
sg17
I0
sg18
S'European American'
p495
ssS'2141'
p496
(dp497
g4
I0
sg5
S'E.B. White'
p498
sg7
I0
sg8
I13
sg9
I0
sg10
I1952
sg11
S'1.0'
p499
sg13
S"charlotte's web"
p500
sg15
S'Male'
p501
sg17
I0
sg18
S'European American'
p502
ssS'413'
p503
(dp504
g4
I0
sg5
S'Tom Clancy'
p505
sg7
I81
sg8
I0
sg9
I0
sg10
I1990
sg11
S'1.0'
p506
sg13
S'the hunt for red october'
p507
sg15
S'Male'
p508
sg17
I0
sg18
S'European American'
p509
ssS'1721'
p510
(dp511
g4
I0
sg5
S'Tom Robbins'
p512
sg7
I0
sg8
I0
sg9
I70
sg10
I1987
sg11
S'1.0'
p513
sg13
S'skinny legs and all'
p514
sg15
S'Male'
p515
sg17
I0
sg18
S'European American'
p516
ssS'921'
p517
(dp518
g4
I0
sg5
S'Dashiell Hammett'
p519
sg7
I0
sg8
I0
sg9
I61
sg10
I1929
sg11
S'1.0'
p520
sg13
S'red harvest'
p521
sg15
S'Male'
p522
sg17
I0
sg18
S'European American'
p523
ssS'922'
p524
(dp525
g4
I56
sg5
S'Dashiell Hammett'
p526
sg7
I0
sg8
I79
sg9
I0
sg10
I1930
sg11
S'2.0'
p527
sg13
S'the maltese falcon'
p528
sg15
S'Male'
p529
sg17
I0
sg18
S'European American'
p530
ssS'1664'
p531
(dp532
g4
I0
sg5
S'Ayn Rand'
p533
sg7
I8
sg8
I0
sg9
I0
sg10
I1936
sg11
S'1.0'
p534
sg13
S'we the living'
p535
sg15
S'Female'
p536
sg17
I0
sg18
S'European American'
p537
ssS'1663'
p538
(dp539
g4
I0
sg5
S'Ayn Rand'
p540
sg7
I2
sg8
I43
sg9
I0
sg10
I1943
sg11
S'2.0'
p541
sg13
S'the fountainhead'
p542
sg15
S'Female'
p543
sg17
I0
sg18
S'European American'
p544
ssS'1662'
p545
(dp546
g4
I0
sg5
S'Ayn Rand'
p547
sg7
I1
sg8
I92
sg9
I0
sg10
I1957
sg11
S'2.0'
p548
sg13
S'atlas shrugged'
p549
sg15
S'Female'
p550
sg17
I0
sg18
S'European American'
p551
ssS'1661'
p552
(dp553
g4
I0
sg5
S'Ayn Rand'
p554
sg7
I7
sg8
I0
sg9
I0
sg10
I1938
sg11
S'1.0'
p555
sg13
S'anthem'
p556
sg15
S'Female'
p557
sg17
I0
sg18
S'European American'
p558
ssS'291'
p559
(dp560
g4
I65
sg5
S'Anthony Burgess'
p561
sg7
I55
sg8
I49
sg9
I79
sg10
I1962
sg11
S'4.0'
p562
sg13
S'a clockwork orange'
p563
sg15
S'Male'
p564
sg17
I0
sg18
S'British'
p565
ssS'591'
p566
(dp567
g4
I16
sg5
S'Theodore Dreiser'
p568
sg7
I0
sg8
I88
sg9
I96
sg10
I1925
sg11
S'3.0'
p569
sg13
S'an american tragedy'
p570
sg15
S'Male'
p571
sg17
I0
sg18
S'European American'
p572
ssS'2213'
p573
(dp574
g4
I15
sg5
S'Virginia Woolf'
p575
sg7
I48
sg8
I34
sg9
I15
sg10
I1927
sg11
S'4.0'
p576
sg13
S'to the lighthouse'
p577
sg15
S'Female'
p578
sg17
I0
sg18
S'British'
p579
ssS'1321'
p580
(dp581
g4
I0
sg5
S'Doris Lessing'
p582
sg7
I0
sg8
I0
sg9
I59
sg10
I1962
sg11
S'1.0'
p583
sg13
S'the golden notebook'
p584
sg15
S'Female'
p585
sg17
I0
sg18
S'British'
p586
ssS'1081'
p587
(dp588
g4
I0
sg5
S'Shirley Jackson'
p589
sg7
I66
sg8
I0
sg9
I0
sg10
I1959
sg11
S'1.0'
p590
sg13
S'the haunting of hill house'
p591
sg15
S'Female'
p592
sg17
I0
sg18
S'European American'
p593
ssS'891'
p594
(dp595
g4
I0
sg5
S'John Grisham'
p596
sg7
I0
sg8
I0
sg9
I0
sg10
I2008
sg11
S'1.0'
p597
sg13
S'the appeal'
p598
sg15
S'Male'
p599
sg17
I90
sg18
S'European American'
p600
ssS'1121'
p601
(dp602
g4
I62
sg5
S'James Jones'
p603
sg7
I0
sg8
I0
sg9
I0
sg10
I1951
sg11
S'2.0'
p604
sg13
S'from here to eternity'
p605
sg15
S'Male'
p606
sg17
I36
sg18
S'European American'
p607
ssS'311'
p608
(dp609
g4
I12
sg5
S'Samuel Butler'
p610
sg7
I0
sg8
I0
sg9
I0
sg10
I1903
sg11
S'1.0'
p611
sg13
S'the way of all flesh'
p612
sg15
S'Male'
p613
sg17
I0
sg18
S'British'
p614
ssS'2061'
p615
(dp616
g4
I0
sg5
S'Mika Waltari'
p617
sg7
I0
sg8
I0
sg9
I0
sg10
I1949
sg11
S'1.0'
p618
sg13
S'the egyptian'
p619
sg15
S'Male'
p620
sg17
I34
sg18
S'Finnish'
p621
ssS'191'
p622
(dp623
g4
I0
sg5
S'Samuel Beckett'
p624
sg7
I0
sg8
I0
sg9
I6
sg10
I1956
sg11
S'1.0'
p625
sg13
S'trilogy: molloy, malone dies, the unnamable'
p626
sg15
S'Male'
p627
sg17
I0
sg18
S'Irish'
p628
ssS'701'
p629
(dp630
g4
I0
sg5
S'John Erskine'
p631
sg7
I0
sg8
I0
sg9
I0
sg10
I1926
sg11
S'1.0'
p632
sg13
S'the private life of helen of troy'
p633
sg15
S'Male'
p634
sg17
I14
sg18
S'European American'
p635
ssS'271'
p636
(dp637
g4
I0
sg5
S'Dan Brown**'
p638
sg7
I0
sg8
I0
sg9
I0
sg10
I2003
sg11
S'1.0'
p639
sg13
S'the da vinci code'
p640
sg15
S'Male '
p641
sg17
I86
sg18
S'European American'
p642
ssS'272'
p643
(dp644
g4
I0
sg5
S'Dan Brown'
p645
sg7
I0
sg8
I0
sg9
I0
sg10
I2009
sg11
S'1.0'
p646
sg13
S'the lost symbol'
p647
sg15
S'Male '
p648
sg17
I91
sg18
S'European American'
p649
ssS'111'
p650
(dp651
g4
I0
sg5
S'Paul Auster'
p652
sg7
I0
sg8
I0
sg9
I69
sg10
I1986
sg11
S'1.0'
p653
sg13
S'the new york trilogy: city of glass, ghosts, the locked room'
p654
sg15
S'Male'
p655
sg17
I0
sg18
S'European American'
p656
ssS'2231'
p657
(dp658
g4
I0
sg5
S'Harold Bell Wright'
p659
sg7
I0
sg8
I0
sg9
I0
sg10
I1914
sg11
S'1.0'
p660
sg13
S'the eyes of the world'
p661
sg15
S'Male'
p662
sg17
I2
sg18
S'European American'
p663
ssS'1891'
p664
(dp665
g4
I0
sg5
S'Irving Stone'
p666
sg7
I0
sg8
I0
sg9
I0
sg10
I1961
sg11
S'1.0'
p667
sg13
S'the agony and the ecstasy'
p668
sg15
S'Male'
p669
sg17
I45
sg18
S'European American'
p670
ssS'894'
p671
(dp672
g4
I0
sg5
S'John Grisham'
p673
sg7
I0
sg8
I0
sg9
I0
sg10
I1994
sg11
S'1.0'
p674
sg13
S'the chamber'
p675
sg15
S'Male'
p676
sg17
I77
sg18
S'European American'
p677
ssS'81'
p678
(dp679
g4
I0
sg5
S'Gertrude Atherton'
p680
sg7
I0
sg8
I0
sg9
I0
sg10
I1923
sg11
S'1.0'
p681
sg13
S'black oxen'
p682
sg15
S'Female'
p683
sg17
I11
sg18
S'European American'
p684
ssS'583'
p685
(dp686
g4
I0
sg5
S'Lloyd C. Douglas*'
p687
sg7
I0
sg8
I0
sg9
I0
sg10
I1953
sg11
S'1.0'
p688
sg13
S'the robe'
p689
sg15
S'Male'
p690
sg17
I28
sg18
S'European American'
p691
ssS'801'
p692
(dp693
g4
I0
sg5
S'William H. Gass'
p694
sg7
I0
sg8
I0
sg9
I16
sg10
I1968
sg11
S'1.0'
p695
sg13
S'in the heart of the heart of the country'
p696
sg15
S'Male'
p697
sg17
I0
sg18
S'European American'
p698
ssS'1711'
p699
(dp700
g4
I0
sg5
S'Alexandra Ripley'
p701
sg7
I0
sg8
I0
sg9
I0
sg10
I1991
sg11
S'1.0'
p702
sg13
S'scarlett'
p703
sg15
S'Female'
p704
sg17
I74
sg18
S'European American'
p705
ssS'831'
p706
(dp707
g4
I41
sg5
S'William Golding'
p708
sg7
I25
sg8
I8
sg9
I0
sg10
I1954
sg11
S'3.0'
p709
sg13
S'the lord of the flies'
p710
sg15
S'Male'
p711
sg17
I0
sg18
S'British'
p712
ssS'896'
p713
(dp714
g4
I0
sg5
S'John Grisham'
p715
sg7
I0
sg8
I0
sg9
I0
sg10
I1997
sg11
S'1.0'
p716
sg13
S'the partner'
p717
sg15
S'Male'
p718
sg17
I80
sg18
S'European American'
p719
ssS'791'
p720
(dp721
g4
I0
sg5
S'William Gaddis'
p722
sg7
I0
sg8
I0
sg9
I17
sg10
I1975
sg11
S'1.0'
p723
sg13
S'jr'
p724
sg15
S'Male'
p725
sg17
I0
sg18
S'European American'
p726
ssS'2211'
p727
(dp728
g4
I0
sg5
S'Virginia Woolf'
p729
sg7
I0
sg8
I46
sg9
I0
sg10
I1925
sg11
S'1.0'
p730
sg13
S'mrs. dalloway'
p731
sg15
S'Female'
p732
sg17
I0
sg18
S'British'
p733
ssS'1851'
p734
(dp735
g4
I0
sg5
S'Mickey Spillane'
p736
sg7
I46
sg8
I0
sg9
I0
sg10
I1951
sg11
S'1.0'
p737
sg13
S'one lonely night'
p738
sg15
S'Male'
p739
sg17
I0
sg18
S'European American'
p740
ssS'141'
p741
(dp742
g4
I0
sg5
S'J.G. Ballard'
p743
sg7
I0
sg8
I0
sg9
I40
sg10
I1973
sg11
S'1.0'
p744
sg13
S'crash'
p745
sg15
S'Male'
p746
sg17
I0
sg18
S'British'
p747
ssS'41'
p748
(dp749
g4
I0
sg5
S'Richard Adams'
p750
sg7
I79
sg8
I0
sg9
I0
sg10
I1972
sg11
S'1.0'
p751
sg13
S'watership down'
p752
sg15
S'Male'
p753
sg17
I0
sg18
S'British'
p754
ssS'724'
p755
(dp756
g4
I6
sg5
S'William Faulkner'
p757
sg7
I33
sg8
I10
sg9
I5
sg10
I1929
sg11
S'4.0'
p758
sg13
S'the sound and the fury'
p759
sg15
S'Male'
p760
sg17
I0
sg18
S'European American'
p761
ssS'121'
p762
(dp763
g4
I0
sg5
S'Richard Bach'
p764
sg7
I98
sg8
I0
sg9
I0
sg10
I1977
sg11
S'1.0'
p765
sg13
S'illusions'
p766
sg15
S'Male'
p767
sg17
I0
sg18
S'European American'
p768
ssS'443'
p769
(dp770
g4
I47
sg5
S'Joseph Conrad'
p771
sg7
I0
sg8
I0
sg9
I0
sg10
I1904
sg11
S'1.0'
p772
sg13
S'nostromo'
p773
sg15
S'Male'
p774
sg17
I0
sg18
S'British'
p775
ssS'2171'
p776
(dp777
g4
I0
sg5
S'Kathleen Winsor'
p778
sg7
I0
sg8
I0
sg9
I0
sg10
I1945
sg11
S'1.0'
p779
sg13
S'forever amber'
p780
sg15
S'Female'
p781
sg17
I30
sg18
S'European American'
p782
ssS'521'
p783
(dp784
g4
I0
sg5
S'Don DeLillo'
p785
sg7
I0
sg8
I0
sg9
I55
sg10
I1986
sg11
S'1.0'
p786
sg13
S'libra'
p787
sg15
S'Male'
p788
sg17
I0
sg18
S'European American'
p789
ssS'522'
p790
(dp791
g4
I0
sg5
S'Don DeLillo'
p792
sg7
I0
sg8
I0
sg9
I19
sg10
I1997
sg11
S'1.0'
p793
sg13
S'underworld'
p794
sg15
S'Male'
p795
sg17
I0
sg18
S'European American'
p796
ssS'523'
p797
(dp798
g4
I0
sg5
S'Don DeLillo'
p799
sg7
I0
sg8
I82
sg9
I0
sg10
I1985
sg11
S'1.0'
p800
sg13
S'white noise'
p801
sg15
S'Male'
p802
sg17
I0
sg18
S'European American'
p803
ssS'421'
p804
(dp805
g4
I0
sg5
S'James Clavell'
p806
sg7
I0
sg8
I0
sg9
I0
sg10
I1981
sg11
S'1.0'
p807
sg13
S'noble house'
p808
sg15
S'Male'
p809
sg17
I64
sg18
S'British'
p810
ssS'722'
p811
(dp812
g4
I35
sg5
S'William Faulkner'
p813
sg7
I67
sg8
I19
sg9
I0
sg10
I1930
sg11
S'3.0'
p814
sg13
S'as i lay dying'
p815
sg15
S'Male'
p816
sg17
I0
sg18
S'European American'
p817
ssS'1401'
p818
(dp819
g4
I0
sg5
S'Ben Marcus'
p820
sg7
I0
sg8
I0
sg9
I72
sg10
I1995
sg11
S'1.0'
p821
sg13
S'the age of wire and string'
p822
sg15
S'Male'
p823
sg17
I0
sg18
S'European American'
p824
ssS'1651'
p825
(dp826
g4
I0
sg5
S'Thomas Pynchon'
p827
sg7
I21
sg8
I0
sg9
I3
sg10
I1973
sg11
S'2.0'
p828
sg13
S"gravity's rainbow"
p829
sg15
S'Male'
p830
sg17
I0
sg18
S'European American'
p831
ssS'911'
p832
(dp833
g4
I0
sg5
S'Laurell K. Hamilton'
p834
sg7
I82
sg8
I0
sg9
I0
sg10
I1993
sg11
S'1.0'
p835
sg13
S'guilty pleasures'
p836
sg15
S'Female'
p837
sg17
I0
sg18
S'European American'
p838
ssS'441'
p839
(dp840
g4
I67
sg5
S'Joseph Conrad'
p841
sg7
I43
sg8
I21
sg9
I28
sg10
I1902
sg11
S'4.0'
p842
sg13
S'heart of darkness'
p843
sg15
S'Male'
p844
sg17
I0
sg18
S'British'
p845
ssS'1012'
p846
(dp847
g4
I0
sg5
S'L. Ron Hubbard'
p848
sg7
I10
sg8
I0
sg9
I0
sg10
I1940
sg11
S'1.0'
p849
sg13
S'fear'
p850
sg15
S'Male'
p851
sg17
I0
sg18
S'European American'
p852
ssS'1451'
p853
(dp854
g4
I0
sg5
S'Joseph McElroy'
p855
sg7
I0
sg8
I0
sg9
I39
sg10
I1974
sg11
S'1.0'
p856
sg13
S'lookout cartridge'
p857
sg15
S'Male'
p858
sg17
I0
sg18
S'European American'
p859
ssS'1421'
p860
(dp861
g4
I66
sg5
S'W. Somerset Maugham'
p862
sg7
I37
sg8
I0
sg9
I0
sg10
I1915
sg11
S'2.0'
p863
sg13
S'of human bondage'
p864
sg15
S'Male'
p865
sg17
I0
sg18
S'British'
p866
ssS'582'
p867
(dp868
g4
I0
sg5
S'Lloyd C. Douglas'
p869
sg7
I0
sg8
I0
sg9
I0
sg10
I1948
sg11
S'1.0'
p870
sg13
S'the big fisherman'
p871
sg15
S'Male'
p872
sg17
I33
sg18
S'European American'
p873
ssS'1231'
p874
(dp875
g4
I0
sg5
S'John Knowles'
p876
sg7
I0
sg8
I67
sg9
I0
sg10
I1959
sg11
S'1.0'
p877
sg13
S'a separate peace'
p878
sg15
S'Male'
p879
sg17
I0
sg18
S'European American'
p880
ssS'581'
p881
(dp882
g4
I0
sg5
S'Lloyd C. Douglas'
p883
sg7
I0
sg8
I0
sg9
I0
sg10
I1935
sg11
S'1.0'
p884
sg13
S'green light'
p885
sg15
S'Male'
p886
sg17
I21
sg18
S'European American'
p887
ssS'1133'
p888
(dp889
g4
I77
sg5
S'James Joyce'
p890
sg7
I0
sg8
I44
sg9
I10
sg10
I1941
sg11
S'3.0'
p891
sg13
S'finnegans wake'
p892
sg15
S'Male'
p893
sg17
I0
sg18
S'Irish'
p894
ssS'1132'
p895
(dp896
g4
I0
sg5
S'James Joyce'
p897
sg7
I0
sg8
I0
sg9
I63
sg10
I1915
sg11
S'1.0'
p898
sg13
S'dubliners'
p899
sg15
S'Male'
p900
sg17
I0
sg18
S'Irish'
p901
ssS'1131'
p902
(dp903
g4
I3
sg5
S'James Joyce'
p904
sg7
I57
sg8
I14
sg9
I21
sg10
I1916
sg11
S'4.0'
p905
sg13
S'a portrait of the artist as a young man'
p906
sg15
S'Male'
p907
sg17
I0
sg18
S'Irish'
p908
ssS'721'
p909
(dp910
g4
I0
sg5
S'William Faulkner'
p911
sg7
I36
sg8
I58
sg9
I32
sg10
I1936
sg11
S'3.0'
p912
sg13
S'absalom, absalom!'
p913
sg15
S'Male'
p914
sg17
I0
sg18
S'European American'
p915
ssS'1331'
p916
(dp917
g4
I0
sg5
S'Sinclair Lewis'
p918
sg7
I78
sg8
I0
sg9
I0
sg10
I1925
sg11
S'1.0'
p919
sg13
S'arrowsmith'
p920
sg15
S'Male'
p921
sg17
I0
sg18
S'European American'
p922
ssS'1333'
p923
(dp924
g4
I0
sg5
S'Sinclair Lewis'
p925
sg7
I0
sg8
I0
sg9
I0
sg10
I1927
sg11
S'1.0'
p926
sg13
S'elmer gantry'
p927
sg15
S'Male'
p928
sg17
I15
sg18
S'European American'
p929
ssS'1134'
p930
(dp931
g4
I1
sg5
S'James Joyce'
p932
sg7
I11
sg8
I6
sg9
I2
sg10
I1922
sg11
S'4.0'
p933
sg13
S'ulysses'
p934
sg15
S'Male'
p935
sg17
I0
sg18
S'Irish'
p936
ssS'381'
p937
(dp938
g4
I63
sg5
S'John Cheever'
p939
sg7
I0
sg8
I0
sg9
I0
sg10
I1957
sg11
S'1.0'
p940
sg13
S'the wapshot chronicles'
p941
sg15
S'Male'
p942
sg17
I0
sg18
S'European American'
p943
ssS'1931'
p944
(dp945
g4
I0
sg5
S'Jacqueline Susann'
p946
sg7
I0
sg8
I0
sg9
I0
sg10
I1966
sg11
S'1.0'
p947
sg13
S'valley of the dolls'
p948
sg15
S'Female'
p949
sg17
I50
sg18
S'European American'
p950
ssS'691'
p951
(dp952
g4
I0
sg5
S'Steve Erickson'
p953
sg7
I0
sg8
I0
sg9
I98
sg10
I1989
sg11
S'1.0'
p954
sg13
S'tours of the black clock'
p955
sg15
S'Male'
p956
sg17
I0
sg18
S'European American'
p957
ssS'241'
p958
(dp959
g4
I97
sg5
S'Paul Bowles'
p960
sg7
I92
sg8
I0
sg9
I83
sg10
I1949
sg11
S'3.0'
p961
sg13
S'the sheltering sky'
p962
sg15
S'Male'
p963
sg17
I0
sg18
S'European American'
p964
ssS'1411'
p965
(dp966
g4
I0
sg5
S'Harry Mathews'
p967
sg7
I0
sg8
I0
sg9
I73
sg10
I1966
sg11
S'1.0'
p968
sg13
S'tlooth'
p969
sg15
S'Male'
p970
sg17
I0
sg18
S'European American'
p971
ssS'102'
p972
(dp973
g4
I0
sg5
S'Jean M. Auel'
p974
sg7
I0
sg8
I0
sg9
I0
sg10
I1990
sg11
S'1.0'
p975
sg13
S'the plains of passage'
p976
sg15
S'Female'
p977
sg17
I73
sg18
S'European American'
p978
ssS'1542'
p979
(dp980
g4
I53
sg5
S'Vladimir Nabokov'
p981
sg7
I0
sg8
I0
sg9
I1
sg10
I1962
sg11
S'2.0'
p982
sg13
S'pale fire'
p983
sg15
S'Male'
p984
sg17
I0
sg18
S'European American'
p985
ssS'101'
p986
(dp987
g4
I0
sg5
S'Jean M. Auel'
p988
sg7
I0
sg8
I0
sg9
I0
sg10
I1985
sg11
S'1.0'
p989
sg13
S'the mammoth hunters'
p990
sg15
S'Female'
p991
sg17
I68
sg18
S'European American'
p992
ssS'373'
p993
(dp994
g4
I0
sg5
S'Willa Cather'
p995
sg7
I0
sg8
I83
sg9
I0
sg10
I1913
sg11
S'1.0'
p996
sg13
S'o pioneers!'
p997
sg15
S'Female'
p998
sg17
I0
sg18
S'European American'
p999
ssS'302'
p1000
(dp1001
g4
I0
sg5
S'William S. Burroughs'
p1002
sg7
I0
sg8
I0
sg9
I8
sg10
I1964
sg11
S'1.0'
p1003
sg13
S'the nova trilogy: the soft machine, nova express, the ticket that exploded'
p1004
sg15
S'Male'
p1005
sg17
I0
sg18
S'European American'
p1006
ssS'902'
p1007
(dp1008
g4
I0
sg5
S'Arthur Hailey'
p1009
sg7
I0
sg8
I0
sg9
I0
sg10
I1971
sg11
S'1.0'
p1010
sg13
S'wheels'
p1011
sg15
S'Male'
p1012
sg17
I55
sg18
S'British'
p1013
ssS'821'
p1014
(dp1015
g4
I0
sg5
S'William Gibson'
p1016
sg7
I0
sg8
I0
sg9
I36
sg10
I1986
sg11
S'1.0'
p1017
sg13
S'cyberspace trilogy: neuromancer, count zero, mona lisa overdrive'
p1018
sg15
S'Male'
p1019
sg17
I0
sg18
S'European Canadian'
p1020
ssS'1213'
p1021
(dp1022
g4
I0
sg5
S'Stephen King'
p1023
sg7
I29
sg8
I0
sg9
I0
sg10
I1978
sg11
S'1.0'
p1024
sg13
S'the stand'
p1025
sg15
S'Male'
p1026
sg17
I0
sg18
S'European American'
p1027
ssS'901'
p1028
(dp1029
g4
I0
sg5
S'Arthur Hailey'
p1030
sg7
I0
sg8
I0
sg9
I0
sg10
I1968
sg11
S'1.0'
p1031
sg13
S'airport'
p1032
sg15
S'Male'
p1033
sg17
I52
sg18
S'British'
p1034
ssS'1432'
p1035
(dp1036
g4
I0
sg5
S'Cormac McCarthy'
p1037
sg7
I96
sg8
I0
sg9
I0
sg10
I1979
sg11
S'1.0'
p1038
sg13
S'suttree'
p1039
sg15
S'Male'
p1040
sg17
I0
sg18
S'European American'
p1041
ssS'781'
p1042
(dp1043
g4
I0
sg5
S'John Fowles'
p1044
sg7
I30
sg8
I93
sg9
I77
sg10
I1969
sg11
S'3.0'
p1045
sg13
S"the french lieutenant's woman"
p1046
sg15
S'Male'
p1047
sg17
I0
sg18
S'British'
p1048
ssS'782'
p1049
(dp1050
g4
I93
sg5
S'John Fowles'
p1051
sg7
I71
sg8
I0
sg9
I0
sg10
I1966
sg11
S'2.0'
p1052
sg13
S'the magus'
p1053
sg15
S'Male'
p1054
sg17
I0
sg18
S'British'
p1055
ssS'2041'
p1056
(dp1057
g4
I0
sg5
S'David Foster Wallace'
p1058
sg7
I0
sg8
I0
sg9
I71
sg10
I1996
sg11
S'1.0'
p1059
sg13
S'infinite jest'
p1060
sg15
S'Male'
p1061
sg17
I0
sg18
S'European American'
p1062
ssS'1151'
p1063
(dp1064
g4
I0
sg5
S'Steve Katz'
p1065
sg7
I0
sg8
I0
sg9
I91
sg10
I1971
sg11
S'1.0'
p1066
sg13
S'creamy & delicious'
p1067
sg15
S'Male'
p1068
sg17
I0
sg18
S'European American'
p1069
ssS'1511'
p1070
(dp1071
g4
I0
sg5
S'Ted Mooney'
p1072
sg7
I0
sg8
I0
sg9
I97
sg10
I1981
sg11
S'1.0'
p1073
sg13
S'easy travels to other planets'
p1074
sg15
S'Male'
p1075
sg17
I0
sg18
S'European American'
p1076
ssS'31'
p1077
(dp1078
g4
I0
sg5
S'Douglas Adams'
p1079
sg7
I51
sg8
I72
sg9
I0
sg10
I1979
sg11
S'2.0'
p1080
sg13
S"the hitchhiker's guide to the galaxy"
p1081
sg15
S'Male'
p1082
sg17
I0
sg18
S'British'
p1083
ssS'1541'
p1084
(dp1085
g4
I4
sg5
S'Vladimir Nabokov'
p1086
sg7
I34
sg8
I11
sg9
I9
sg10
I1955
sg11
S'4.0'
p1087
sg13
S'lolita'
p1088
sg15
S'Male'
p1089
sg17
I0
sg18
S'European American'
p1090
ssS'1381'
p1091
(dp1092
g4
I0
sg5
S'Robert Ludlum'
p1093
sg7
I0
sg8
I0
sg9
I0
sg10
I1979
sg11
S'1.0'
p1094
sg13
S'the matarese circle'
p1095
sg15
S'Male'
p1096
sg17
I62
sg18
S'European American'
p1097
ssS'1241'
p1098
(dp1099
g4
I8
sg5
S'Arthur Koestler'
p1100
sg7
I0
sg8
I0
sg9
I0
sg10
I1940
sg11
S'1.0'
p1101
sg13
S'darkness at noon'
p1102
sg15
S'Male'
p1103
sg17
I0
sg18
S'British'
p1104
ssS'2251'
p1105
(dp1106
g4
I0
sg5
S'Stephen Wright'
p1107
sg7
I0
sg8
I0
sg9
I13
sg10
I1994
sg11
S'1.0'
p1108
sg13
S'going native'
p1109
sg15
S'Male'
p1110
sg17
I0
sg18
S'European American'
p1111
ssS'1531'
p1112
(dp1113
g4
I95
sg5
S'Iris Murdoch'
p1114
sg7
I0
sg8
I0
sg9
I0
sg10
I1954
sg11
S'1.0'
p1115
sg13
S'under the net'
p1116
sg15
S'Female'
p1117
sg17
I0
sg18
S'British'
p1118
ssS'511'
p1119
(dp1120
g4
I0
sg5
S'Samuel R. Delany'
p1121
sg7
I0
sg8
I0
sg9
I33
sg10
I1975
sg11
S'1.0'
p1122
sg13
S'dhalgren'
p1123
sg15
S'Male'
p1124
sg17
I0
sg18
S'British'
p1125
ssS'1841'
p1126
(dp1127
g4
I76
sg5
S'Muriel Spark'
p1128
sg7
I0
sg8
I0
sg9
I0
sg10
I1961
sg11
S'1.0'
p1129
sg13
S'the prime of miss jean brodie'
p1130
sg15
S'Female'
p1131
sg17
I0
sg18
S'British'
p1132
ssS'512'
p1133
(dp1134
g4
I0
sg5
S'Samuel R. Delany'
p1135
sg7
I0
sg8
I0
sg9
I100
sg10
I1996
sg11
S'1.0'
p1136
sg13
S'hogg'
p1137
sg15
S'Male'
p1138
sg17
I0
sg18
S'African American'
p1139
ssS'2161'
p1140
(dp1141
g4
I0
sg5
S'Terri Windling'
p1142
sg7
I70
sg8
I0
sg9
I0
sg10
I1996
sg11
S'1.0'
p1143
sg13
S'the wood wife'
p1144
sg15
S'Female'
p1145
sg17
I0
sg18
S'European American'
p1146
ssS'412'
p1147
(dp1148
g4
I0
sg5
S'Tom Clancy'
p1149
sg7
I0
sg8
I0
sg9
I0
sg10
I1988
sg11
S'1.0'
p1150
sg13
S'clear and present danger'
p1151
sg15
S'Male'
p1152
sg17
I72
sg18
S'European American'
p1153
ssS'1001'
p1154
(dp1155
g4
I0
sg5
S'Khaled Hosseini**'
p1156
sg7
I0
sg8
I0
sg9
I0
sg10
I2007
sg11
S'1.0'
p1157
sg13
S'a thousand splendid suns'
p1158
sg15
S'Male'
p1159
sg17
I89
sg18
S'Afghan American'
p1160
ssS'431'
p1161
(dp1162
g4
I0
sg5
S'J. M. Coetzee'
p1163
sg7
I0
sg8
I0
sg9
I92
sg10
I1980
sg11
S'1.0'
p1164
sg13
S'waiting for the barbarians'
p1165
sg15
S'Male'
p1166
sg17
I0
sg18
S'Austrailian'
p1167
ssS'621'
p1168
(dp1169
g4
I0
sg5
S'Rikki Ducornet'
p1170
sg7
I0
sg8
I0
sg9
I35
sg10
I1984
sg11
S'1.0'
p1171
sg13
S'the stain'
p1172
sg15
S'Female'
p1173
sg17
I0
sg18
S'European American'
p1174
ssS'897'
p1175
(dp1176
g4
I0
sg5
S'John Grisham'
p1177
sg7
I0
sg8
I0
sg9
I0
sg10
I1995
sg11
S'1.0'
p1178
sg13
S'the rainmaker'
p1179
sg15
S'Male'
p1180
sg17
I78
sg18
S'European American'
p1181
ssS'882'
p1182
(dp1183
g4
I0
sg5
S'Zane Grey'
p1184
sg7
I0
sg8
I0
sg9
I0
sg10
I1918
sg11
S'1.0'
p1185
sg13
S'the u. p. trail'
p1186
sg15
S'Male'
p1187
sg17
I6
sg18
S'European American'
p1188
ssS'1341'
p1189
(dp1190
g4
I0
sg5
S'Richard Llewellyn'
p1191
sg7
I0
sg8
I0
sg9
I0
sg10
I1940
sg11
S'1.0'
p1192
sg13
S'how green was my valley'
p1193
sg15
S'Male'
p1194
sg17
I25
sg18
S'British'
p1195
ssS'452'
p1196
(dp1197
g4
I0
sg5
S'Robert Coover'
p1198
sg7
I0
sg8
I0
sg9
I4
sg10
I1977
sg11
S'1.0'
p1199
sg13
S'the public burning'
p1200
sg15
S'Male'
p1201
sg17
I0
sg18
S'European American'
p1202
ssS'453'
p1203
(dp1204
g4
I0
sg5
S'Robert Coover'
p1205
sg7
I0
sg8
I0
sg9
I90
sg10
I1968
sg11
S'1.0'
p1206
sg13
S'the universal baseball association, inc., j. henry waugh, prop.'
p1207
sg15
S'Male'
p1208
sg17
I0
sg18
S'European American'
p1209
ssS'331'
p1210
(dp1211
g4
I91
sg5
S'Erskine Caldwell'
p1212
sg7
I0
sg8
I0
sg9
I0
sg10
I1932
sg11
S'1.0'
p1213
sg13
S'tobacco road'
p1214
sg15
S'Male'
p1215
sg17
I0
sg18
S'European American'
p1216
ssS'531'
p1217
(dp1218
g4
I0
sg5
S'Phillip K. Dick'
p1219
sg7
I0
sg8
I0
sg9
I75
sg10
I1962
sg11
S'1.0'
p1220
sg13
S'the man in the high castle'
p1221
sg15
S'Male'
p1222
sg17
I0
sg18
S'European American'
p1223
ssS'444'
p1224
(dp1225
g4
I46
sg5
S'Joseph Conrad'
p1226
sg7
I0
sg8
I0
sg9
I0
sg10
I1907
sg11
S'1.0'
p1227
sg13
S'the secret agent'
p1228
sg15
S'Male'
p1229
sg17
I0
sg18
S'British'
p1230
ssS'1522'
p1231
(dp1232
g4
I0
sg5
S'Toni Morrison'
p1233
sg7
I0
sg8
I56
sg9
I0
sg10
I1992
sg11
S'1.0'
p1234
sg13
S'jazz'
p1235
sg15
S'Female'
p1236
sg17
I0
sg18
S'African American'
p1237
ssS'61'
p1238
(dp1239
g4
I0
sg5
S'Hervey Allen'
p1240
sg7
I0
sg8
I0
sg9
I0
sg10
I1934
sg11
S'1.0'
p1241
sg13
S'anthony adverse'
p1242
sg15
S'Male'
p1243
sg17
I20
sg18
S'European American'
p1244
ssS'592'
p1245
(dp1246
g4
I33
sg5
S'Theodore Dreiser'
p1247
sg7
I0
sg8
I0
sg9
I0
sg10
I1900
sg11
S'1.0'
p1248
sg13
S'sister carrie'
p1249
sg15
S'Male'
p1250
sg17
I0
sg18
S'European American'
p1251
ssS'1872'
p1252
(dp1253
g4
I0
sg5
S'Gertrude Stein'
p1254
sg7
I0
sg8
I0
sg9
I7
sg10
I1925
sg11
S'1.0'
p1255
sg13
S'the making of americans'
p1256
sg15
S'Female'
p1257
sg17
I0
sg18
S'European American'
p1258
ssS'1871'
p1259
(dp1260
g4
I0
sg5
S'Gertrude Stein'
p1261
sg7
I0
sg8
I78
sg9
I0
sg10
I1933
sg11
S'1.0'
p1262
sg13
S'the autobiography of alice b. tokias'
p1263
sg15
S'Female'
p1264
sg17
I0
sg18
S'European American'
p1265
ssS'252'
p1266
(dp1267
g4
I0
sg5
S'Ray Bradbury'
p1268
sg7
I65
sg8
I0
sg9
I0
sg10
I1962
sg11
S'1.0'
p1269
sg13
S'something wicked this way comes'
p1270
sg15
S'Male'
p1271
sg17
I0
sg18
S'European American'
p1272
ssS'251'
p1273
(dp1274
g4
I0
sg5
S'Ray Bradbury'
p1275
sg7
I77
sg8
I0
sg9
I0
sg10
I1953
sg11
S'1.0'
p1276
sg13
S'farenheit 451'
p1277
sg15
S'Male'
p1278
sg17
I0
sg18
S'European American'
p1279
ssS'171'
p1280
(dp1281
g4
I0
sg5
S'Donald Barthelme'
p1282
sg7
I0
sg8
I0
sg9
I25
sg10
I1981
sg11
S'1.0'
p1283
sg13
S'60 stories'
p1284
sg15
S'Male'
p1285
sg17
I0
sg18
S'European American'
p1286
ssS'1901'
p1287
(dp1288
g4
I0
sg5
S'Theodore Sturgeon'
p1289
sg7
I0
sg8
I0
sg9
I93
sg10
I1951
sg11
S'1.0'
p1290
sg13
S'more than human'
p1291
sg15
S'Male'
p1292
sg17
I0
sg18
S'European American'
p1293
ssS'2051'
p1294
(dp1295
g4
I0
sg5
S'Robert James Waller'
p1296
sg7
I0
sg8
I0
sg9
I0
sg10
I1993
sg11
S'1.0'
p1297
sg13
S'the bridges of madison county'
p1298
sg15
S'Male'
p1299
sg17
I76
sg18
S'European American'
p1300
ssS'1631'
p1301
(dp1302
g4
I0
sg5
S'Katherine Anne Porter'
p1303
sg7
I0
sg8
I0
sg9
I0
sg10
I1962
sg11
S'1.0'
p1304
sg13
S'ship of fools'
p1305
sg15
S'Female'
p1306
sg17
I46
sg18
S'European American'
p1307
ssS'1271'
p1308
(dp1309
g4
I0
sg5
S'Stieg Larsson'
p1310
sg7
I0
sg8
I0
sg9
I0
sg10
I2010
sg11
S'1.0'
p1311
sg13
S'the girl who kicked the hornets nest'
p1312
sg15
S'Male'
p1313
sg17
I92
sg18
S'Swedish'
p1314
ssS'341'
p1315
(dp1316
g4
I0
sg5
S'Truman Capote'
p1317
sg7
I0
sg8
I53
sg9
I0
sg10
I1966
sg11
S'1.0'
p1318
sg13
S'in cold blood'
p1319
sg15
S'Male'
p1320
sg17
I0
sg18
S'European American'
p1321
ssS'851'
p1322
(dp1323
g4
I14
sg5
S'Robert Graves'
p1324
sg7
I74
sg8
I0
sg9
I0
sg10
I1934
sg11
S'2.0'
p1325
sg13
S'i, claudius'
p1326
sg15
S'Male'
p1327
sg17
I0
sg18
S'British'
p1328
ssS'971'
p1329
(dp1330
g4
I0
sg5
S'Frank Herbert'
p1331
sg7
I14
sg8
I0
sg9
I0
sg10
I1965
sg11
S'1.0'
p1332
sg13
S'dune'
p1333
sg15
S'Male'
p1334
sg17
I0
sg18
S'European American'
p1335
ssS'1981'
p1336
(dp1337
g4
I0
sg5
S'Jean Toomer'
p1338
sg7
I0
sg8
I0
sg9
I64
sg10
I1925
sg11
S'1.0'
p1339
sg13
S'cane'
p1340
sg15
S'Male'
p1341
sg17
I0
sg18
S'African American'
p1342
ssS'1731'
p1343
(dp1344
g4
I0
sg5
S'Henry Morton Robinson'
p1345
sg7
I0
sg8
I0
sg9
I0
sg10
I1950
sg11
S'1.0'
p1346
sg13
S'the cardinal'
p1347
sg15
S'Male'
p1348
sg17
I35
sg18
S'European American'
p1349
ssS'371'
p1350
(dp1351
g4
I61
sg5
S'Willa Cather'
p1352
sg7
I0
sg8
I89
sg9
I0
sg10
I1927
sg11
S'2.0'
p1353
sg13
S'death comes for the archbishop'
p1354
sg15
S'Female'
p1355
sg17
I0
sg18
S'European American'
p1356
ssS'51'
p1357
(dp1358
g4
I0
sg5
S'Mitch Albom'
p1359
sg7
I0
sg8
I0
sg9
I0
sg10
I2006
sg11
S'1.0'
p1360
sg13
S'for one more day'
p1361
sg15
S'Male'
p1362
sg17
I88
sg18
S'European American'
p1363
ssS'732'
p1364
(dp1365
g4
I0
sg5
S'Raymond Federman'
p1366
sg7
I0
sg8
I0
sg9
I11
sg10
I1975
sg11
S'1.0'
p1367
sg13
S'take it or leave it'
p1368
sg15
S'Male'
p1369
sg17
I0
sg18
S'European American'
p1370
ssS'8911'
p1371
(dp1372
g4
I0
sg5
S'John Grisham'
p1373
sg7
I0
sg8
I0
sg9
I0
sg10
I1999
sg11
S'1.0'
p1374
sg13
S'the testament'
p1375
sg15
S'Male'
p1376
sg17
I82
sg18
S'European American'
p1377
ssS'731'
p1378
(dp1379
g4
I0
sg5
S'Raymond Federman'
p1380
sg7
I0
sg8
I0
sg9
I46
sg10
I1972
sg11
S'1.0'
p1381
sg13
S'double or nothing'
p1382
sg15
S'Male'
p1383
sg17
I0
sg18
S'European American'
p1384
ssS'181'
p1385
(dp1386
g4
I0
sg5
S'L. Frank Baum'
p1387
sg7
I0
sg8
I47
sg9
I0
sg10
I1900
sg11
S'1.0'
p1388
sg13
S'the wonderful wizard of oz'
p1389
sg15
S'Male'
p1390
sg17
I0
sg18
S'European American'
p1391
ssS'1881'
p1392
(dp1393
g4
I0
sg5
S'John Steinbeck'
p1394
sg7
I0
sg8
I12
sg9
I0
sg10
I1937
sg11
S'1.0'
p1395
sg13
S'of mice and men'
p1396
sg15
S'Male'
p1397
sg17
I0
sg18
S'European American'
p1398
ssS'391'
p1399
(dp1400
g4
I0
sg5
S'Kate Chopin'
p1401
sg7
I0
sg8
I50
sg9
I0
sg10
I1899
sg11
S'1.0'
p1402
sg13
S'the awakening'
p1403
sg15
S'Female'
p1404
sg17
I0
sg18
S'European American'
p1405
ssS'651'
p1406
(dp1407
g4
I0
sg5
S'E.R. Eddison'
p1408
sg7
I32
sg8
I0
sg9
I0
sg10
I1922
sg11
S'1.0'
p1409
sg13
S'the worm ouroboros'
p1410
sg15
S'Male'
p1411
sg17
I0
sg18
S'British'
p1412
ssS'2111'
p1413
(dp1414
g4
I0
sg5
S'Morris L. West'
p1415
sg7
I0
sg8
I0
sg9
I0
sg10
I1963
sg11
S'1.0'
p1416
sg13
S'the shoes of the fisherman'
p1417
sg15
S'Male'
p1418
sg17
I47
sg18
S'Austrailian'
p1419
ssS'641'
p1420
(dp1421
g4
I0
sg5
S'William Eastlake'
p1422
sg7
I0
sg8
I0
sg9
I67
sg10
I1956
sg11
S'1.0'
p1423
sg13
S'go in beauty'
p1424
sg15
S'Male'
p1425
sg17
I0
sg18
S'European American'
p1426
ssS'503'
p1427
(dp1428
g4
I0
sg5
S'Charles de Lint'
p1429
sg7
I35
sg8
I0
sg9
I0
sg10
I1984
sg11
S'1.0'
p1430
sg13
S'moonheart'
p1431
sg15
S'Male'
p1432
sg17
I0
sg18
S'European Canadian'
p1433
ssS'501'
p1434
(dp1435
g4
I0
sg5
S'Charles de Lint'
p1436
sg7
I58
sg8
I0
sg9
I0
sg10
I1988
sg11
S'1.0'
p1437
sg13
S'greenmantle'
p1438
sg15
S'Male'
p1439
sg17
I0
sg18
S'European Canadian'
p1440
ssS'753'
p1441
(dp1442
g4
I2
sg5
S'F. Scott Fitzgerald'
p1443
sg7
I13
sg8
I1
sg9
I22
sg10
I1925
sg11
S'4.0'
p1444
sg13
S'the great gatsby'
p1445
sg15
S'Male'
p1446
sg17
I0
sg18
S'European American'
p1447
ssS'752'
p1448
(dp1449
g4
I0
sg5
S'F. Scott Fitzgerald'
p1450
sg7
I0
sg8
I96
sg9
I0
sg10
I1922
sg11
S'1.0'
p1451
sg13
S'the beautiful and the damned'
p1452
sg15
S'Male'
p1453
sg17
I0
sg18
S'European American'
p1454
ssS'751'
p1455
(dp1456
g4
I28
sg5
S'F. Scott Fitzgerald'
p1457
sg7
I0
sg8
I62
sg9
I0
sg10
I1934
sg11
S'2.0'
p1458
sg13
S'tender is the night'
p1459
sg15
S'Male'
p1460
sg17
I0
sg18
S'European American'
p1461
ssS'981'
p1462
(dp1463
g4
I0
sg5
S'Russell Hoban'
p1464
sg7
I0
sg8
I0
sg9
I66
sg10
I1982
sg11
S'1.0'
p1465
sg13
S'riddley walker'
p1466
sg15
S'Male'
p1467
sg17
I0
sg18
S'European American'
p1468
ssS'947'
p1469
(dp1470
g4
I0
sg5
S'Robert Heinlein'
p1471
sg7
I83
sg8
I0
sg9
I0
sg10
I1951
sg11
S'1.0'
p1472
sg13
S'the puppet masters'
p1473
sg15
S'Male'
p1474
sg17
I0
sg18
S'European American'
p1475
ssS'754'
p1476
(dp1477
g4
I0
sg5
S'F. Scott Fitzgerald'
p1478
sg7
I0
sg8
I91
sg9
I0
sg10
I1920
sg11
S'1.0'
p1479
sg13
S'this side of paradise'
p1480
sg15
S'Male'
p1481
sg17
I0
sg18
S'European American'
p1482
ssS'1171'
p1483
(dp1484
g4
I0
sg5
S'Thomas Keneally'
p1485
sg7
I0
sg8
I41
sg9
I0
sg10
I1982
sg11
S'1.0'
p1486
sg13
S"schindler's list"
p1487
sg15
S'Male'
p1488
sg17
I0
sg18
S'Austrailian'
p1489
ssS'561'
p1490
(dp1491
g4
I99
sg5
S'J.P. Donleavy'
p1492
sg7
I0
sg8
I0
sg9
I0
sg10
I1955
sg11
S'1.0'
p1493
sg13
S'the ginger man'
p1494
sg15
S'Male'
p1495
sg17
I0
sg18
S'European American'
p1496
ssS'1351'
p1497
(dp1498
g4
I88
sg5
S'Jack London'
p1499
sg7
I75
sg8
I33
sg9
I0
sg10
I1903
sg11
S'3.0'
p1500
sg13
S'the call of the wild'
p1501
sg15
S'Male'
p1502
sg17
I0
sg18
S'European American'
p1503
ssS'943'
p1504
(dp1505
g4
I0
sg5
S'Robert Heinlein'
p1506
sg7
I62
sg8
I0
sg9
I0
sg10
I1959
sg11
S'1.0'
p1507
sg13
S'starship troopers'
p1508
sg15
S'Male'
p1509
sg17
I0
sg18
S'European American'
p1510
ssS'461'
p1511
(dp1512
g4
I0
sg5
S'Thomas B. Costain'
p1513
sg7
I0
sg8
I0
sg9
I0
sg10
I1952
sg11
S'1.0'
p1514
sg13
S'the silver chalice'
p1515
sg15
S'Male'
p1516
sg17
I37
sg18
S'European Canadian'
p1517
ssS'792'
p1518
(dp1519
g4
I0
sg5
S'William Gaddis'
p1520
sg7
I61
sg8
I0
sg9
I27
sg10
I1955
sg11
S'2.0'
p1521
sg13
S'the recognitions'
p1522
sg15
S'Male'
p1523
sg17
I0
sg18
S'European American'
p1524
ssS'1861'
p1525
(dp1526
g4
I82
sg5
S'Wallace Stegner'
p1527
sg7
I0
sg8
I0
sg9
I0
sg10
I1971
sg11
S'1.0'
p1528
sg13
S'angle of repose'
p1529
sg15
S'Male'
p1530
sg17
I0
sg18
S'European American'
p1531
ssS'2181'
p1532
(dp1533
g4
I0
sg5
S'Gene Wolfe'
p1534
sg7
I0
sg8
I0
sg9
I78
sg10
I1981
sg11
S'1.0'
p1535
sg13
S'the book of the new sun" tetralogy'
p1536
sg15
S'Male'
p1537
sg17
I0
sg18
S'European American'
p1538
ssS'1591'
p1539
(dp1540
g4
I31
sg5
S'George Orwell'
p1541
sg7
I20
sg8
I17
sg9
I0
sg10
I1945
sg11
S'3.0'
p1542
sg13
S'animal farm'
p1543
sg15
S'Male '
p1544
sg17
I0
sg18
S'British'
p1545
ssS'1592'
p1546
(dp1547
g4
I13
sg5
S'George Orwell'
p1548
sg7
I6
sg8
I9
sg9
I0
sg10
I1949
sg11
S'3.0'
p1549
sg13
S'1984.0'
p1550
sg15
S'Male '
p1551
sg17
I0
sg18
S'British'
p1552
ssS'91'
p1553
(dp1554
g4
I0
sg5
S'Margaret Atwood'
p1555
sg7
I53
sg8
I0
sg9
I0
sg10
I1985
sg11
S'1.0'
p1556
sg13
S"the handmaid's tale"
p1557
sg15
S'Female'
p1558
sg17
I0
sg18
S'European Canadian'
p1559
ssS'1641'
p1560
(dp1561
g4
I43
sg5
S'Anthony Powell'
p1562
sg7
I0
sg8
I0
sg9
I0
sg10
I1951
sg11
S'1.0'
p1563
sg13
S'a question of upbringing'
p1564
sg15
S'Male'
p1565
sg17
I0
sg18
S'British'
p1566
ssS'1181'
p1567
(dp1568
g4
I92
sg5
S'William Kennedy'
p1569
sg7
I0
sg8
I0
sg9
I80
sg10
I1983
sg11
S'1.0'
p1570
sg13
S'ironweed'
p1571
sg15
S'Male'
p1572
sg17
I0
sg18
S'European American'
p1573
ssS'161'
p1574
(dp1575
g4
I0
sg5
S'John Barth'
p1576
sg7
I0
sg8
I0
sg9
I42
sg10
I1960
sg11
S'1.0'
p1577
sg13
S'the sot-weed factor'
p1578
sg15
S'Male'
p1579
sg17
I0
sg18
S'European American'
p1580
ssS'221'
p1581
(dp1582
g4
I87
sg5
S'Arnold Bennett'
p1583
sg7
I0
sg8
I0
sg9
I0
sg10
I1908
sg11
S'1.0'
p1584
sg13
S"the old wives' tale"
p1585
sg15
S'Male'
p1586
sg17
I0
sg18
S'British'
p1587
ssS'11'
p1588
(dp1589
g4
I0
sg5
S'Chinua Achebe'
p1590
sg7
I0
sg8
I70
sg9
I0
sg10
I1958
sg11
S'1.0'
p1591
sg13
S'things fall apart'
p1592
sg15
S'Male'
p1593
sg17
I0
sg18
S'Nigerian'
p1594
ssS'965'
p1595
(dp1596
g4
I45
sg5
S'Ernest Hemingway'
p1597
sg7
I63
sg8
I18
sg9
I20
sg10
I1926
sg11
S'4.0'
p1598
sg13
S'the sun also rises'
p1599
sg15
S'Male'
p1600
sg17
I0
sg18
S'European American'
p1601
ssS'1621'
p1602
(dp1603
g4
I0
sg5
S'Robert Pirsig'
p1604
sg7
I73
sg8
I0
sg9
I0
sg10
I1974
sg11
S'1.0'
p1605
sg13
S'zen and the art of motorcycle maintenance'
p1606
sg15
S'Male'
p1607
sg17
I0
sg18
S'European American'
p1608
ssS'881'
p1609
(dp1610
g4
I0
sg5
S'Zane Grey'
p1611
sg7
I0
sg8
I0
sg9
I0
sg10
I1920
sg11
S'1.0'
p1612
sg13
S'the man of the forest'
p1613
sg15
S'Male'
p1614
sg17
I8
sg18
S'European American'
p1615
ssS'15'
p1616
(dp1617
g4
I22
sg5
S"John O'Hara"
p1618
sg7
I0
sg8
I0
sg9
I0
sg10
I1934
sg11
S'1.0'
p1619
sg13
S'appointment in samarra'
p1620
sg15
S'Male'
p1621
sg17
I0
sg18
S'European American'
p1622
ssS'961'
p1623
(dp1624
g4
I74
sg5
S'Ernest Hemingway'
p1625
sg7
I91
sg8
I20
sg9
I0
sg10
I1929
sg11
S'3.0'
p1626
sg13
S'a farewell to arms'
p1627
sg15
S'Male'
p1628
sg17
I0
sg18
S'European American'
p1629
ssS'962'
p1630
(dp1631
g4
I0
sg5
S'Ernest Hemingway'
p1632
sg7
I0
sg8
I30
sg9
I0
sg10
I1940
sg11
S'1.0'
p1633
sg13
S'for whom the bell tolls'
p1634
sg15
S'Male'
p1635
sg17
I0
sg18
S'European American'
p1636
ssS'963'
p1637
(dp1638
g4
I0
sg5
S'Ernest Hemingway'
p1639
sg7
I0
sg8
I77
sg9
I0
sg10
I1925
sg11
S'1.0'
p1640
sg13
S'in our time'
p1641
sg15
S'Male'
p1642
sg17
I0
sg18
S'European American'
p1643
ssS'861'
p1644
(dp1645
g4
I89
sg5
S'Henry Green'
p1646
sg7
I0
sg8
I0
sg9
I0
sg10
I1945
sg11
S'1.0'
p1647
sg13
S'loving'
p1648
sg15
S'Male'
p1649
sg17
I0
sg18
S'British'
p1650
ssS'2011'
p1651
(dp1652
g4
I0
sg5
S'William T. Vollmann'
p1653
sg7
I0
sg8
I0
sg9
I26
sg10
I1993
sg11
S'1.0'
p1654
sg13
S'the rifles'
p1655
sg15
S'Male'
p1656
sg17
I0
sg18
S'European American'
p1657
ssS'1431'
p1658
(dp1659
g4
I0
sg5
S'Cormac McCarthy'
p1660
sg7
I54
sg8
I0
sg9
I48
sg10
I1965
sg11
S'2.0'
p1661
sg13
S'blood meridian'
p1662
sg15
S'Male'
p1663
sg17
I0
sg18
S'European American'
p1664
ssS'1481'
p1665
(dp1666
g4
I50
sg5
S'Henry Miller'
p1667
sg7
I68
sg8
I84
sg9
I37
sg10
I1934
sg11
S'4.0'
p1668
sg13
S'tropic of cancer'
p1669
sg15
S'Male'
p1670
sg17
I0
sg18
S'European American'
p1671
ssS'2241'
p1672
(dp1673
g4
I20
sg5
S'Richard Wright'
p1674
sg7
I0
sg8
I27
sg9
I50
sg10
I1940
sg11
S'3.0'
p1675
sg13
S'native son'
p1676
sg15
S'Male'
p1677
sg17
I0
sg18
S'African American'
p1678
ssS'1601'
p1679
(dp1680
g4
I0
sg5
S'Boris Pasternak'
p1681
sg7
I0
sg8
I0
sg9
I0
sg10
I1958
sg11
S'1.0'
p1682
sg13
S'doctor zhivago'
p1683
sg15
S'Male'
p1684
sg17
I42
sg18
S'Russian'
p1685
ssS'1104'
p1686
(dp1687
g4
I0
sg5
S'Henry James'
p1688
sg7
I0
sg8
I35
sg9
I0
sg10
I1881
sg11
S'1.0'
p1689
sg13
S'portrait of a lady'
p1690
sg15
S'Male'
p1691
sg17
I0
sg18
S'European American'
p1692
ssS'1105'
p1693
(dp1694
g4
I26
sg5
S'Henry James'
p1695
sg7
I0
sg8
I69
sg9
I0
sg10
I1902
sg11
S'2.0'
p1696
sg13
S'the wings of the dove'
p1697
sg15
S'Male'
p1698
sg17
I0
sg18
S'European American'
p1699
ssS'1102'
p1700
(dp1701
g4
I0
sg5
S'Henry James'
p1702
sg7
I0
sg8
I87
sg9
I0
sg10
I1886
sg11
S'1.0'
p1703
sg13
S'the bostonians'
p1704
sg15
S'Male'
p1705
sg17
I0
sg18
S'European American'
p1706
ssS'1103'
p1707
(dp1708
g4
I32
sg5
S'Henry James'
p1709
sg7
I0
sg8
I0
sg9
I0
sg10
I1904
sg11
S'1.0'
p1710
sg13
S'the golden bowl'
p1711
sg15
S'Male'
p1712
sg17
I0
sg18
S'European American'
p1713
ssS'2022'
p1714
(dp1715
g4
I18
sg5
S'Kurt Vonnegut'
p1716
sg7
I23
sg8
I29
sg9
I54
sg10
I1969
sg11
S'2.0'
p1717
sg13
S'slaughterhouse-five'
p1718
sg15
S'Male'
p1719
sg17
I0
sg18
S'European American'
p1720
ssS'1101'
p1721
(dp1722
g4
I27
sg5
S'Henry James'
p1723
sg7
I0
sg8
I0
sg9
I23
sg10
I1903
sg11
S'2.0'
p1724
sg13
S'the ambassadors'
p1725
sg15
S'Male'
p1726
sg17
I0
sg18
S'European American'
p1727
ssS'2101'
p1728
(dp1729
g4
I0
sg5
S'Franz Werfel'
p1730
sg7
I0
sg8
I0
sg9
I0
sg10
I1942
sg11
S'1.0'
p1731
sg13
S'the song of bernadette'
p1732
sg15
S'Male'
p1733
sg17
I27
sg18
S'Austrian'
p1734
ssS'2012'
p1735
(dp1736
g4
I0
sg5
S'William T. Vollmann'
p1737
sg7
I0
sg8
I0
sg9
I88
sg10
I1987
sg11
S'1.0'
p1738
sg13
S'you bright and risen angels'
p1739
sg15
S'Male'
p1740
sg17
I0
sg18
S'European American'
p1741
ssS'631'
p1742
(dp1743
g4
I70
sg5
S'Lawrence Durell'
p1744
sg7
I0
sg8
I0
sg9
I0
sg10
I1958
sg11
S'1.0'
p1745
sg13
S'the alexandria quartet'
p1746
sg15
S'Male'
p1747
sg17
I0
sg18
S'British'
p1748
ssS'1741'
p1749
(dp1750
g4
I0
sg5
S'Marilynne Robinson'
p1751
sg7
I0
sg8
I0
sg9
I53
sg10
I1980
sg11
S'1.0'
p1752
sg13
S'housekeeping'
p1753
sg15
S'Female'
p1754
sg17
I0
sg18
S'European American'
p1755
ssS'151'
p1756
(dp1757
g4
I0
sg5
S'Djuna Barnes'
p1758
sg7
I0
sg8
I0
sg9
I52
sg10
I1937
sg11
S'1.0'
p1759
sg13
S'nightwood'
p1760
sg15
S'Female'
p1761
sg17
I0
sg18
S'European American'
p1762
ssS'741'
p1763
(dp1764
g4
I0
sg5
S'Edna Ferber'
p1765
sg7
I0
sg8
I0
sg9
I0
sg10
I1930
sg11
S'1.0'
p1766
sg13
S'cimarron'
p1767
sg15
S'Female'
p1768
sg17
I18
sg18
S'European American'
p1769
ssS'742'
p1770
(dp1771
g4
I0
sg5
S'Edna Ferber'
p1772
sg7
I0
sg8
I0
sg9
I0
sg10
I1924
sg11
S'1.0'
p1773
sg13
S'so big'
p1774
sg15
S'Female'
p1775
sg17
I12
sg18
S'European American'
p1776
ssS'372'
p1777
(dp1778
g4
I0
sg5
S'Willa Cather'
p1779
sg7
I94
sg8
I51
sg9
I0
sg10
I1918
sg11
S'2.0'
p1780
sg13
S'my antonia'
p1781
sg15
S'Female'
p1782
sg17
I0
sg18
S'European American'
p1783
ssS'601'
p1784
(dp1785
g4
I0
sg5
S'Allen Drury'
p1786
sg7
I0
sg8
I0
sg9
I0
sg10
I1960
sg11
S'1.0'
p1787
sg13
S'advise and consent'
p1788
sg15
S'Male'
p1789
sg17
I44
sg18
S'European American'
p1790
ssS'1161'
p1791
(dp1792
g4
I0
sg5
S'Elia Kazan'
p1793
sg7
I0
sg8
I0
sg9
I0
sg10
I1967
sg11
S'1.0'
p1794
sg13
S'the arrangement'
p1795
sg15
S'Male'
p1796
sg17
I51
sg18
S'European American'
p1797
ssS'156'
p1798
(dp1799
g4
I0
sg5
S"Flann O'Brien"
p1800
sg7
I76
sg8
I0
sg9
I47
sg10
I1951
sg11
S'2.0'
p1801
sg13
S'at swim-two-birds'
p1802
sg15
S'Male'
p1803
sg17
I0
sg18
S'Irish'
p1804
ssS'942'
p1805
(dp1806
g4
I0
sg5
S'Robert Heinlein'
p1807
sg7
I72
sg8
I0
sg9
I0
sg10
I1956
sg11
S'1.0'
p1808
sg13
S'the door into summer'
p1809
sg15
S'Male'
p1810
sg17
I0
sg18
S'European American'
p1811
ssS'551'
p1812
(dp1813
g4
I86
sg5
S'E. L. Doctorow'
p1814
sg7
I0
sg8
I0
sg9
I0
sg10
I1975
sg11
S'2.0'
p1815
sg13
S'ragtime'
p1816
sg15
S'Male'
p1817
sg17
I58
sg18
S'European American'
p1818
ssS'361'
p1819
(dp1820
g4
I0
sg5
S'Raymond Carver'
p1821
sg7
I0
sg8
I0
sg9
I62
sg10
I1981
sg11
S'1.0'
p1822
sg13
S'what we talk about when we talk about love'
p1823
sg15
S'Male'
p1824
sg17
I0
sg18
S'European American'
p1825
ssS'1202'
p1826
(dp1827
g4
I0
sg5
S'Ken Kesey'
p1828
sg7
I93
sg8
I0
sg9
I0
sg10
I1964
sg11
S'1.0'
p1829
sg13
S'sometimes a great notion'
p1830
sg15
S'Male'
p1831
sg17
I0
sg18
S'European American'
p1832
ssS'1211'
p1833
(dp1834
g4
I0
sg5
S'Stephen King'
p1835
sg7
I0
sg8
I0
sg9
I0
sg10
I1992
sg11
S'1.0'
p1836
sg13
S'dolores clairborne'
p1837
sg15
S'Male'
p1838
sg17
I75
sg18
S'European American'
p1839
ssS'261'
p1840
(dp1841
g4
I0
sg5
S'William Brinkley'
p1842
sg7
I0
sg8
I0
sg9
I0
sg10
I1956
sg11
S'1.0'
p1843
sg13
S"don't go near the water"
p1844
sg15
S'Male'
p1845
sg17
I40
sg18
S'European American'
p1846
ssS'1332'
p1847
(dp1848
g4
I0
sg5
S'Sinclair Lewis'
p1849
sg7
I0
sg8
I94
sg9
I0
sg10
I1922
sg11
S'1.0'
p1850
sg13
S'babbitt'
p1851
sg15
S'Male'
p1852
sg17
I0
sg18
S'European American'
p1853
ssS'941'
p1854
(dp1855
g4
I0
sg5
S'Robert Heinlein'
p1856
sg7
I87
sg8
I0
sg9
I0
sg10
I1957
sg11
S'1.0'
p1857
sg13
S'citizen of the galaxy'
p1858
sg15
S'Male'
p1859
sg17
I0
sg18
S'European American'
p1860
ssS'351'
p1861
(dp1862
g4
I0
sg5
S'Orson Scott Card'
p1863
sg7
I59
sg8
I0
sg9
I0
sg10
I1985
sg11
S'1.0'
p1864
sg13
S"ender's game"
p1865
sg15
S'Male'
p1866
sg17
I0
sg18
S'European American'
p1867
ssS'231'
p1868
(dp1869
g4
I84
sg5
S'Elizabeth Bowen'
p1870
sg7
I0
sg8
I0
sg9
I0
sg10
I1938
sg11
S'1.0'
p1871
sg13
S'the death of the heart'
p1872
sg15
S'Female'
p1873
sg17
I0
sg18
S'Irish'
p1874
ssS'1991'
p1875
(dp1876
g4
I0
sg5
S'John Updike'
p1877
sg7
I0
sg8
I97
sg9
I0
sg10
I1960
sg11
S'1.0'
p1878
sg13
S'rabbit, run'
p1879
sg15
S'Male'
p1880
sg17
I0
sg18
S'European American'
p1881
ssS'1091'
p1882
(dp1883
g4
I0
sg5
S'E. L. James'
p1884
sg7
I0
sg8
I0
sg9
I0
sg10
I2012
sg11
S'1.0'
p1885
sg13
S'fifty shades of grey'
p1886
sg15
S'Female'
p1887
sg17
I94
sg18
S'British'
p1888
ssS'1051'
p1889
(dp1890
g4
I5
sg5
S'Aldous Huxley'
p1891
sg7
I18
sg8
I16
sg9
I44
sg10
I1932
sg11
S'4.0'
p1892
sg13
S'brave new world'
p1893
sg15
S'Male'
p1894
sg17
I0
sg18
S'British'
p1895
ssS'1052'
p1896
(dp1897
g4
I44
sg5
S'Aldous Huxley'
p1898
sg7
I0
sg8
I0
sg9
I0
sg10
I1928
sg11
S'1.0'
p1899
sg13
S'point counter point'
p1900
sg15
S'Male'
p1901
sg17
I0
sg18
S'British'
p1902
ssS'1031'
p1903
(dp1904
g4
I0
sg5
S'Zora Neale Hurston'
p1905
sg7
I0
sg8
I23
sg9
I31
sg10
I1937
sg11
S'2.0'
p1906
sg13
S'their eyes were watching god'
p1907
sg15
S'Female'
p1908
sg17
I0
sg18
S'African American'
p1909
ssS'2132'
p1910
(dp1911
g4
I58
sg5
S'Edith Wharton'
p1912
sg7
I0
sg8
I42
sg9
I0
sg10
I1920
sg11
S'2.0'
p1913
sg13
S'the age of innocence'
p1914
sg15
S'Female'
p1915
sg17
I0
sg18
S'European American'
p1916
ssS'2133'
p1917
(dp1918
g4
I69
sg5
S'Edith Wharton'
p1919
sg7
I0
sg8
I0
sg9
I65
sg10
I1905
sg11
S'2.0'
p1920
sg13
S'the house of mirth'
p1921
sg15
S'Female'
p1922
sg17
I0
sg18
S'European American'
p1923
ssS'2131'
p1924
(dp1925
g4
I0
sg5
S'Edith Wharton'
p1926
sg7
I0
sg8
I60
sg9
I0
sg10
I1911
sg11
S'1.0'
p1927
sg13
S'ethan frome'
p1928
sg15
S'Female'
p1929
sg17
I0
sg18
S'European American'
p1930
ssS'1191'
p1931
(dp1932
g4
I55
sg5
S'Jack Kerouac'
p1933
sg7
I42
sg8
I31
sg9
I38
sg10
I1957
sg11
S'4.0'
p1934
sg13
S'on the road'
p1935
sg15
S'Male'
p1936
sg17
I0
sg18
S'European American'
p1937
ssS'1215'
p1938
(dp1939
g4
I0
sg5
S'Stephen King'
p1940
sg7
I0
sg8
I0
sg9
I0
sg10
I1987
sg11
S'1.0'
p1941
sg13
S'the tommyknockers'
p1942
sg15
S'Male'
p1943
sg17
I70
sg18
S'European American'
p1944
ssS'1013'
p1945
(dp1946
g4
I0
sg5
S'L. Ron Hubbard'
p1947
sg7
I9
sg8
I0
sg9
I0
sg10
I1986
sg11
S'1.0'
p1948
sg13
S'mission earth'
p1949
sg15
S'Male'
p1950
sg17
I0
sg18
S'European American'
p1951
ssS'871'
p1952
(dp1953
g4
I40
sg5
S'Graham Greene'
p1954
sg7
I0
sg8
I0
sg9
I0
sg10
I1948
sg11
S'1.0'
p1955
sg13
S'the heart of the matter'
p1956
sg15
S'Male'
p1957
sg17
I0
sg18
S'British'
p1958
ssS'1111'
p1959
(dp1960
g4
I0
sg5
S'Russell Janney'
p1961
sg7
I0
sg8
I0
sg9
I0
sg10
I1947
sg11
S'1.0'
p1962
sg13
S'the miracle of the bells'
p1963
sg15
S'Male'
p1964
sg17
I32
sg18
S'European American'
p1965
ssS'2001'
p1966
(dp1967
g4
I0
sg5
S'Leon Uris'
p1968
sg7
I0
sg8
I0
sg9
I0
sg10
I1959
sg11
S'1.0'
p1969
sg13
S'exodus'
p1970
sg15
S'Male'
p1971
sg17
I43
sg18
S'European American'
p1972
ssS'471'
p1973
(dp1974
g4
I0
sg5
S'James Gould Cozzens'
p1975
sg7
I0
sg8
I0
sg9
I0
sg10
I1957
sg11
S'1.0'
p1976
sg13
S'by love possessed'
p1977
sg15
S'Male'
p1978
sg17
I41
sg18
S'European American'
p1979
ssS'301'
p1980
(dp1981
g4
I0
sg5
S'William S. Burroughs'
p1982
sg7
I80
sg8
I73
sg9
I0
sg10
I1959
sg11
S'2.0'
p1983
sg13
S'naked lunch'
p1984
sg15
S'Male'
p1985
sg17
I0
sg18
S'European American'
p1986
ssS'2031'
p1987
(dp1988
g4
I0
sg5
S'Alice Walker'
p1989
sg7
I0
sg8
I5
sg9
I0
sg10
I1982
sg11
S'1.0'
p1990
sg13
S'the color purple'
p1991
sg15
S'Female'
p1992
sg17
I0
sg18
S'African American'
p1993
ssS'1691'
p1994
(dp1995
g4
I0
sg5
S'Erich Maria Remarque'
p1996
sg7
I0
sg8
I0
sg9
I0
sg10
I1929
sg11
S'1.0'
p1997
sg13
S'all quiet on the western front'
p1998
sg15
S'Male'
p1999
sg17
I17
sg18
S'German'
p2000
ssS'1882'
p2001
(dp2002
g4
I10
sg5
S'John Steinbeck'
p2003
sg7
I22
sg8
I3
sg9
I34
sg10
I1939
sg11
S'5.0'
p2004
sg13
S'the grapes of wrath'
p2005
sg15
S'Male'
p2006
sg17
I24
sg18
S'European American'
p2007
ssS'1291'
p2008
(dp2009
g4
I0
sg5
S'John le Carre'
p2010
sg7
I0
sg8
I0
sg9
I0
sg10
I1964
sg11
S'1.0'
p2011
sg13
S'the spy who came in from the cold'
p2012
sg15
S'Male'
p2013
sg17
I48
sg18
S'British'
p2014
ssS'1751'
p2015
(dp2016
g4
I52
sg5
S'Philip Roth'
p2017
sg7
I0
sg8
I0
sg9
I0
sg10
I1969
sg11
S'1.0'
p2018
sg13
S"portnoy's complaint"
p2019
sg15
S'Male'
p2020
sg17
I53
sg18
S'European American'
p2021
ssS'723'
p2022
(dp2023
g4
I54
sg5
S'William Faulkner'
p2024
sg7
I89
sg8
I68
sg9
I0
sg10
I1932
sg11
S'3.0'
p2025
sg13
S'light in august'
p2026
sg15
S'Male'
p2027
sg17
I0
sg18
S'European American'
p2028
ssS'201'
p2029
(dp2030
g4
I59
sg5
S'Max Beerbohm'
p2031
sg7
I0
sg8
I0
sg9
I0
sg10
I1911
sg11
S'1.0'
p2032
sg13
S'zuleika dobson'
p2033
sg15
S'Male'
p2034
sg17
I0
sg18
S'British'
p2035
ssS'774'
p2036
(dp2037
g4
I0
sg5
S'E.M. Forster'
p2038
sg7
I0
sg8
I98
sg9
I0
sg10
I1905
sg11
S'1.0'
p2039
sg13
S'where angels fear to tread'
p2040
sg15
S'Male'
p2041
sg17
I0
sg18
S'British'
p2042
ssS'892'
p2043
(dp2044
g4
I0
sg5
S'John Grisham'
p2045
sg7
I0
sg8
I0
sg9
I0
sg10
I2000
sg11
S'1.0'
p2046
sg13
S'the brethren'
p2047
sg15
S'Male'
p2048
sg17
I83
sg18
S'European American'
p2049
ssS'893'
p2050
(dp2051
g4
I0
sg5
S'John Grisham'
p2052
sg7
I0
sg8
I0
sg9
I0
sg10
I2005
sg11
S'1.0'
p2053
sg13
S'the broker'
p2054
sg15
S'Male'
p2055
sg17
I87
sg18
S'European American'
p2056
ssS'771'
p2057
(dp2058
g4
I25
sg5
S'E.M. Forster'
p2059
sg7
I0
sg8
I59
sg9
I45
sg10
I1924
sg11
S'3.0'
p2060
sg13
S'a passage to india'
p2061
sg15
S'Male'
p2062
sg17
I0
sg18
S'British'
p2063
ssS'895'
p2064
(dp2065
g4
I0
sg5
S'John Grisham'
p2066
sg7
I0
sg8
I0
sg9
I0
sg10
I2011
sg11
S'1.0'
p2067
sg13
S'the litigators'
p2068
sg15
S'Male'
p2069
sg17
I93
sg18
S'European American'
p2070
ssS'773'
p2071
(dp2072
g4
I38
sg5
S'E.M. Forster'
p2073
sg7
I0
sg8
I52
sg9
I0
sg10
I1910
sg11
S'2.0'
p2074
sg13
S'howards end'
p2075
sg15
S'Male'
p2076
sg17
I0
sg18
S'British'
p2077
ssS'772'
p2078
(dp2079
g4
I79
sg5
S'E.M. Forster'
p2080
sg7
I0
sg8
I39
sg9
I0
sg10
I1908
sg11
S'2.0'
p2081
sg13
S'a room with a view'
p2082
sg15
S'Male'
p2083
sg17
I0
sg18
S'British'
p2084
ssS'898'
p2085
(dp2086
g4
I0
sg5
S'John Grisham'
p2087
sg7
I0
sg8
I0
sg9
I0
sg10
I1996
sg11
S'1.0'
p2088
sg13
S'the runaway jury'
p2089
sg15
S'Male'
p2090
sg17
I79
sg18
S'European American'
p2091
ssS'899'
p2092
(dp2093
g4
I0
sg5
S'John Grisham'
p2094
sg7
I0
sg8
I0
sg9
I0
sg10
I1998
sg11
S'1.0'
p2095
sg13
S'the street lawyer'
p2096
sg15
S'Male'
p2097
sg17
I81
sg18
S'European American'
p2098
ssS'2201'
p2099
(dp2100
g4
I0
sg5
S'Thomas Wolfe'
p2101
sg7
I0
sg8
I65
sg9
I0
sg10
I1987
sg11
S'1.0'
p2102
sg13
S'bonfire of the vanities'
p2103
sg15
S'Male'
p2104
sg17
I0
sg18
S'European American'
p2105
ssS'1214'
p2106
(dp2107
g4
I0
sg5
S'Stephen King and Peter Straub'
p2108
sg7
I0
sg8
I0
sg9
I0
sg10
I1984
sg11
S'1.0'
p2109
sg13
S'the talisman'
p2110
sg15
S'Male'
p2111
sg17
I67
sg18
S'European American'
p2112
ssS'803'
p2113
(dp2114
g4
I0
sg5
S'William H. Gass'
p2115
sg7
I0
sg8
I0
sg9
I81
sg10
I1995
sg11
S'1.0'
p2116
sg13
S'the tunnel'
p2117
sg15
S'Male'
p2118
sg17
I0
sg18
S'European American'
p2119
ssS'841'
p2120
(dp2121
g4
I0
sg5
S'Kenneth Grahame'
p2122
sg7
I0
sg8
I90
sg9
I0
sg10
I1908
sg11
S'1.0'
p2123
sg13
S'the wind in the willows'
p2124
sg15
S'Male'
p2125
sg17
I0
sg18
S'British'
p2126
ssS'71'
p2127
(dp2128
g4
I24
sg5
S'Sherwood Anderson'
p2129
sg7
I0
sg8
I0
sg9
I87
sg10
I1919
sg11
S'2.0'
p2130
sg13
S'winesburg, ohio'
p2131
sg15
S'Male'
p2132
sg17
I0
sg18
S'European American'
p2133
ssS'1334'
p2134
(dp2135
g4
I68
sg5
S'Sinclair Lewis'
p2136
sg7
I0
sg8
I99
sg9
I0
sg10
I1921
sg11
S'3.0'
p2137
sg13
S'main street'
p2138
sg15
S'Male'
p2139
sg17
I9
sg18
S'European American'
p2140
ssS'1501'
p2141
(dp2142
g4
I0
sg5
S'Margaret Mitchell'
p2143
sg7
I24
sg8
I26
sg9
I0
sg10
I1936
sg11
S'3.0'
p2144
sg13
S'gone with the wind'
p2145
sg15
S'Female'
p2146
sg17
I22
sg18
S'European American'
p2147
ssS'944'
p2148
(dp2149
g4
I0
sg5
S'Robert Heinlein'
p2150
sg7
I16
sg8
I0
sg9
I0
sg10
I1961
sg11
S'1.0'
p2151
sg13
S'stranger in a strange land'
p2152
sg15
S'Male'
p2153
sg17
I0
sg18
S'European American'
p2154
ssS'321'
p2155
(dp2156
g4
I98
sg5
S'James M. Cain'
p2157
sg7
I0
sg8
I0
sg9
I0
sg10
I1934
sg11
S'1.0'
p2158
sg13
S'the postman always rings twice'
p2159
sg15
S'Male'
p2160
sg17
I0
sg18
S'European American'
p2161
ssS'481'
p2162
(dp2163
g4
I0
sg5
S'A. J. Cronin'
p2164
sg7
I0
sg8
I0
sg9
I0
sg10
I1941
sg11
S'1.0'
p2165
sg13
S'the keys of the kingdom'
p2166
sg15
S'Male'
p2167
sg17
I26
sg18
S'British'
p2168
ssS'1811'
p2169
(dp2170
g4
I0
sg5
S'Upton Sinclair'
p2171
sg7
I0
sg8
I45
sg9
I0
sg10
I1906
sg11
S'1.0'
p2172
sg13
S'the jungle'
p2173
sg15
S'Male'
p2174
sg17
I0
sg18
S'European American'
p2175
ssS'2121'
p2176
(dp2177
g4
I73
sg5
S'Nathaniel West'
p2178
sg7
I0
sg8
I0
sg9
I51
sg10
I1939
sg11
S'2.0'
p2179
sg13
S'the day of the locust'
p2180
sg15
S'Male'
p2181
sg17
I0
sg18
S'European American'
p2182
ssS'1284'
p2183
(dp2184
g4
I49
sg5
S'D.H. Lawrence'
p2185
sg7
I0
sg8
I75
sg9
I24
sg10
I1921
sg11
S'3.0'
p2186
sg13
S'women in love'
p2187
sg15
S'Male'
p2188
sg17
I0
sg18
S'British'
p2189
ssS'1041'
p2190
(dp2191
g4
I0
sg5
S'A.S.M. Hutchinson'
p2192
sg7
I0
sg8
I0
sg9
I0
sg10
I1922
sg11
S'1.0'
p2193
sg13
S'if winter comes'
p2194
sg15
S'Male'
p2195
sg17
I10
sg18
S'British'
p2196
ssS'1281'
p2197
(dp2198
g4
I0
sg5
S'D.H. Lawrence'
p2199
sg7
I0
sg8
I48
sg9
I0
sg10
I1928
sg11
S'1.0'
p2200
sg13
S"lady chatterley's lover"
p2201
sg15
S'Male'
p2202
sg17
I0
sg18
S'British'
p2203
ssS'1802'
p2204
(dp2205
g4
I0
sg5
S'Nevil Shute'
p2206
sg7
I56
sg8
I0
sg9
I0
sg10
I1957
sg11
S'1.0'
p2207
sg13
S'on the beach'
p2208
sg15
S'Male'
p2209
sg17
I0
sg18
S'British'
p2210
ssS'1283'
p2211
(dp2212
g4
I48
sg5
S'D.H. Lawrence'
p2213
sg7
I0
sg8
I0
sg9
I0
sg10
I1915
sg11
S'1.0'
p2214
sg13
S'the rainbow'
p2215
sg15
S'Male'
p2216
sg17
I0
sg18
S'British'
p2217
ssS'1282'
p2218
(dp2219
g4
I9
sg5
S'D.H. Lawrence'
p2220
sg7
I0
sg8
I64
sg9
I0
sg10
I1913
sg11
S'2.0'
p2221
sg13
S'sons and lovers'
p2222
sg15
S'Male'
p2223
sg17
I0
sg18
S'British'
p2224
ssS'2082'
p2225
(dp2226
g4
I80
sg5
S'Evelyn Waugh'
p2227
sg7
I88
sg8
I74
sg9
I0
sg10
I1945
sg11
S'3.0'
p2228
sg13
S'brideshead revisited'
p2229
sg15
S'Male'
p2230
sg17
I0
sg18
S'British'
p2231
ssS'2083'
p2232
(dp2233
g4
I75
sg5
S'Evelyn Waugh'
p2234
sg7
I0
sg8
I0
sg9
I0
sg10
I1938
sg11
S'1.0'
p2235
sg13
S'scoop'
p2236
sg15
S'Male'
p2237
sg17
I0
sg18
S'British'
p2238
ssS'1201'
p2239
(dp2240
g4
I0
sg5
S'Ken Kesey'
p2241
sg7
I90
sg8
I28
sg9
I0
sg10
I1962
sg11
S'2.0'
p2242
sg13
S"one flew over the cuckoo's nest"
p2243
sg15
S'Male'
p2244
sg17
I0
sg18
S'European American'
p2245
ssS'2081'
p2246
(dp2247
g4
I34
sg5
S'Evelyn Waugh'
p2248
sg7
I0
sg8
I0
sg9
I0
sg10
I1934
sg11
S'1.0'
p2249
sg13
S'a handful of dust'
p2250
sg15
S'Male'
p2251
sg17
I0
sg18
S'British'
p2252
ssS'451'
p2253
(dp2254
g4
I0
sg5
S'Robert Coover'
p2255
sg7
I0
sg8
I0
sg9
I74
sg10
I1969
sg11
S'1.0'
p2256
sg13
S'pricksongs and descants'
p2257
sg15
S'Male'
p2258
sg17
I0
sg18
S'European American'
p2259
ssS'1972'
p2260
(dp2261
g4
I0
sg5
S'J. R. R. Tolkien and Christopher Tolkien'
p2262
sg7
I0
sg8
I0
sg9
I0
sg10
I1977
sg11
S'1.0'
p2263
sg13
S'the silmarillion'
p2264
sg15
S'Male'
p2265
sg17
I60
sg18
S'British'
p2266
ssS'1971'
p2267
(dp2268
g4
I0
sg5
S'J.R.R. Tolkien'
p2269
sg7
I4
sg8
I40
sg9
I0
sg10
I1942
sg11
S'2.0'
p2270
sg13
S'the lord of the rings'
p2271
sg15
S'Male'
p2272
sg17
I0
sg18
S'British'
p2273
ssS'2002'
p2274
(dp2275
g4
I0
sg5
S'Leon Uris'
p2276
sg7
I0
sg8
I0
sg9
I0
sg10
I1976
sg11
S'1.0'
p2277
sg13
S'trinity'
p2278
sg15
S'Male'
p2279
sg17
I59
sg18
S'European American'
p2280
ssS'1681'
p2281
(dp2282
g4
I0
sg5
S'Ishmael Reed'
p2283
sg7
I0
sg8
I0
sg9
I86
sg10
I1969
sg11
S'1.0'
p2284
sg13
S'yellow back radio broke-down'
p2285
sg15
S'Male'
p2286
sg17
I0
sg18
S'African American'
p2287
ssS'1473'
p2288
(dp2289
g4
I0
sg5
S'James A. Michener'
p2290
sg7
I0
sg8
I0
sg9
I0
sg10
I1980
sg11
S'1.0'
p2291
sg13
S'the covenant'
p2292
sg15
S'Male'
p2293
sg17
I63
sg18
S'European American'
p2294
ssS'8910'
p2295
(dp2296
g4
I0
sg5
S'John Grisham'
p2297
sg7
I0
sg8
I0
sg9
I0
sg10
I2002
sg11
S'1.0'
p2298
sg13
S'the summons'
p2299
sg15
S'Male'
p2300
sg17
I85
sg18
S'European American'
p2301
ssS'1471'
p2302
(dp2303
g4
I0
sg5
S'James A. Michener'
p2304
sg7
I0
sg8
I0
sg9
I0
sg10
I1974
sg11
S'1.0'
p2305
sg13
S'centennial'
p2306
sg15
S'Male'
p2307
sg17
I57
sg18
S'European American'
p2308
ssS'1474'
p2309
(dp2310
g4
I0
sg5
S'James A. Michener'
p2311
sg7
I0
sg8
I0
sg9
I0
sg10
I1965
sg11
S'1.0'
p2312
sg13
S'the source'
p2313
sg15
S'Male'
p2314
sg17
I49
sg18
S'European American'
p2315
ssS'1361'
p2316
(dp2317
g4
I0
sg5
S'H.P. Lovecraft'
p2318
sg7
I45
sg8
I0
sg9
I0
sg10
I1936
sg11
S'1.0'
p2319
sg13
S'at the mountains of madness'
p2320
sg15
S'Male'
p2321
sg17
I0
sg18
S'European American'
p2322
ssS'1762'
p2323
(dp2324
g4
I0
sg5
S'Salman Rushdie'
p2325
sg7
I100
sg8
I55
sg9
I0
sg10
I1988
sg11
S'2.0'
p2326
sg13
S'the satanic verses'
p2327
sg15
S'Male'
p2328
sg17
I0
sg18
S'British Indian'
p2329
ssS'802'
p2330
(dp2331
g4
I0
sg5
S'William H. Gass'
p2332
sg7
I0
sg8
I0
sg9
I82
sg10
I1966
sg11
S'1.0'
p2333
sg13
S"omensetter's luck"
p2334
sg15
S'Male'
p2335
sg17
I0
sg18
S'European American'
p2336
ssS'1571'
p2337
(dp2338
g4
I0
sg5
S"Flannery O'Connor"
p2339
sg7
I0
sg8
I61
sg9
I0
sg10
I1953
sg11
S'1.0'
p2340
sg13
S'a good man is hard to find'
p2341
sg15
S'Female'
p2342
sg17
I0
sg18
S'European American'
p2343
ssS'1761'
p2344
(dp2345
g4
I90
sg5
S'Salman Rushdie'
p2346
sg7
I0
sg8
I100
sg9
I41
sg10
I1981
sg11
S'3.0'
p2347
sg13
S"midnight's children"
p2348
sg15
S'Male'
p2349
sg17
I0
sg18
S'British Indian'
p2350
ssS'681'
p2351
(dp2352
g4
I19
sg5
S'Ralph Ellison'
p2353
sg7
I69
sg8
I24
sg9
I18
sg10
I1952
sg11
S'4.0'
p2354
sg13
S'invisible man'
p2355
sg15
S'Male'
p2356
sg17
I0
sg18
S'African American'
p2357
ssS'1803'
p2358
(dp2359
g4
I0
sg5
S'Nevil Shute'
p2360
sg7
I27
sg8
I0
sg9
I0
sg10
I1960
sg11
S'1.0'
p2361
sg13
S'trustee from the toolroom'
p2362
sg15
S'Male'
p2363
sg17
I0
sg18
S'British'
p2364
ss.