(dp1
S'1942'
p2
(dp3
S'ml_editors_rank'
p4
I100
sS'author'
p5
S'Booth Tarkington'
p6
sS'ml_readers_rank'
p7
I0
sS'pub_prog_rank'
p8
I0
sS'exp_rank'
p9
I0
sS'year'
p10
I1918
sS'num_lists'
p11
S'1.0'
p12
sS'filepath'
p13
S'src/../data/20thCenturyCorpus/1942Tarkington1918.txt'
p14
sS'title'
p15
S'the magnificent ambersons'
p16
sS'gender'
p17
S'Male'
p18
sS'bestsellers_rank'
p19
I0
sS'natl'
p20
S'European American'
p21
ssS'1943'
p22
(dp23
g4
I0
sg5
S'Booth Tarkington'
p24
sg7
I0
sg8
I0
sg9
I0
sg10
I1915
sg11
S'1.0'
p25
sg13
S'src/../data/20thCenturyCorpus/1943Tarkington1915.txt'
p26
sg15
S'the turmoil'
p27
sg17
S'Male'
p28
sg19
I3
sg20
S'European American'
p29
ssS'1941'
p30
(dp31
g4
I0
sg5
S'Booth Tarkington'
p32
sg7
I0
sg8
I0
sg9
I0
sg10
I1916
sg11
S'1.0'
p33
sg13
S'src/../data/20thCenturyCorpus/1941Tarkington1916.txt'
p34
sg15
S'seventeen'
p35
sg17
S'Male'
p36
sg19
I4
sg20
S'European American'
p37
ssS'341'
p38
(dp39
g4
I0
sg5
S'Truman Capote'
p40
sg7
I0
sg8
I53
sg9
I0
sg10
I1966
sg11
S'1.0'
p41
sg13
S'src/../data/20thCenturyCorpus/341Capote1966.txt'
p42
sg15
S'in cold blood'
p43
sg17
S'Male'
p44
sg19
I0
sg20
S'European American'
p45
ssS'811'
p46
(dp47
g4
I0
sg5
S'A. Hamilton Gibbs'
p48
sg7
I0
sg8
I0
sg9
I0
sg10
I1925
sg11
S'1.0'
p49
sg13
S'src/../data/20thCenturyCorpus/811Gibbs1925.txt'
p50
sg15
S'soundings'
p51
sg17
S'Male'
p52
sg19
I13
sg20
S'British'
p53
ssS'1791'
p54
(dp55
g4
I0
sg5
S'Erich Segal'
p56
sg7
I0
sg8
I0
sg9
I0
sg10
I1970
sg11
S'1.0'
p57
sg13
S'src/../data/20thCenturyCorpus/1791Segal1970.txt'
p58
sg15
S'love story'
p59
sg17
S'Male'
p60
sg19
I54
sg20
S'European American'
p61
ssS'1523'
p62
(dp63
g4
I0
sg5
S'Toni Morrison'
p64
sg7
I0
sg8
I25
sg9
I0
sg10
I1977
sg11
S'1.0'
p65
sg13
S'src/../data/20thCenturyCorpus/1523Morrison1977.txt'
p66
sg15
S'song of solomon'
p67
sg17
S'Female'
p68
sg19
I0
sg20
S'African American'
p69
ssS'711'
p70
(dp71
g4
I29
sg5
S'James T. Farrell'
p72
sg7
I0
sg8
I0
sg9
I0
sg10
I1933
sg11
S'1.0'
p73
sg13
S'src/../data/20thCenturyCorpus/711Farrell1933.txt'
p74
sg15
S'the studs lonigan trilogy'
p75
sg17
S'Male'
p76
sg19
I0
sg20
S'European American'
p77
ssS'1491'
p78
(dp79
g4
I0
sg5
S'A.A. Milne'
p80
sg7
I0
sg8
I22
sg9
I0
sg10
I1926
sg11
S'1.0'
p81
sg13
S'src/../data/20thCenturyCorpus/1491Milne1926.txt'
p82
sg15
S'winnie-the-pooh'
p83
sg17
S'Male'
p84
sg19
I0
sg20
S'British'
p85
ssS'1701'
p86
(dp87
g4
I94
sg5
S'Jean Rhys'
p88
sg7
I0
sg8
I81
sg9
I0
sg10
I1966
sg11
S'2.0'
p89
sg13
S'src/../data/20thCenturyCorpus/1701Rhys1966.txt'
p90
sg15
S'wide sargasso sea'
p91
sg17
S'Female'
p92
sg19
I0
sg20
S'British'
p93
ssS'1061'
p94
(dp95
g4
I0
sg5
S'Vicente Blasco Ibanez'
p96
sg7
I0
sg8
I0
sg9
I0
sg10
I1919
sg11
S'1.0'
p97
sg13
S'src/../data/20thCenturyCorpus/1061Ibez1919.txt'
p98
sg15
S'the four horsemen of the apocalypse'
p99
sg17
S'Male'
p100
sg19
I7
sg20
S'Spanish'
p101
ssS'1664'
p102
(dp103
g4
I0
sg5
S'Ayn Rand'
p104
sg7
I8
sg8
I0
sg9
I0
sg10
I1936
sg11
S'1.0'
p105
sg13
S'src/../data/20thCenturyCorpus/1664Rand1936.txt'
p106
sg15
S'we the living'
p107
sg17
S'Female'
p108
sg19
I0
sg20
S'European American'
p109
ssS'1663'
p110
(dp111
g4
I0
sg5
S'Ayn Rand'
p112
sg7
I2
sg8
I43
sg9
I0
sg10
I1943
sg11
S'2.0'
p113
sg13
S'src/../data/20thCenturyCorpus/1663Rand1943.txt'
p114
sg15
S'the fountainhead'
p115
sg17
S'Female'
p116
sg19
I0
sg20
S'European American'
p117
ssS'1662'
p118
(dp119
g4
I0
sg5
S'Ayn Rand'
p120
sg7
I1
sg8
I92
sg9
I0
sg10
I1957
sg11
S'2.0'
p121
sg13
S'src/../data/20thCenturyCorpus/1662Rand1957.txt'
p122
sg15
S'atlas shrugged'
p123
sg17
S'Female'
p124
sg19
I0
sg20
S'European American'
p125
ssS'1661'
p126
(dp127
g4
I0
sg5
S'Ayn Rand'
p128
sg7
I7
sg8
I0
sg9
I0
sg10
I1938
sg11
S'1.0'
p129
sg13
S'src/../data/20thCenturyCorpus/1661Rand1938.txt'
p130
sg15
S'anthem'
p131
sg17
S'Female'
p132
sg19
I0
sg20
S'European American'
p133
ssS'291'
p134
(dp135
g4
I65
sg5
S'Anthony Burgess'
p136
sg7
I55
sg8
I49
sg9
I79
sg10
I1962
sg11
S'4.0'
p137
sg13
S'src/../data/20thCenturyCorpus/291Burgess1962.txt'
p138
sg15
S'a clockwork orange'
p139
sg17
S'Male'
p140
sg19
I0
sg20
S'British'
p141
ssS'591'
p142
(dp143
g4
I16
sg5
S'Theodore Dreiser'
p144
sg7
I0
sg8
I88
sg9
I96
sg10
I1925
sg11
S'3.0'
p145
sg13
S'src/../data/20thCenturyCorpus/591Dreiser1925.txt'
p146
sg15
S'an american tragedy'
p147
sg17
S'Male'
p148
sg19
I0
sg20
S'European American'
p149
ssS'592'
p150
(dp151
g4
I33
sg5
S'Theodore Dreiser'
p152
sg7
I0
sg8
I0
sg9
I0
sg10
I1900
sg11
S'1.0'
p153
sg13
S'src/../data/20thCenturyCorpus/592Dreiser1900.txt'
p154
sg15
S'sister carrie'
p155
sg17
S'Male'
p156
sg19
I0
sg20
S'European American'
p157
ssS'1081'
p158
(dp159
g4
I0
sg5
S'Shirley Jackson'
p160
sg7
I66
sg8
I0
sg9
I0
sg10
I1959
sg11
S'1.0'
p161
sg13
S'src/../data/20thCenturyCorpus/1081Jackson1959.txt'
p162
sg15
S'the haunting of hill house'
p163
sg17
S'Female'
p164
sg19
I0
sg20
S'European American'
p165
ssS'1121'
p166
(dp167
g4
I62
sg5
S'James Jones'
p168
sg7
I0
sg8
I0
sg9
I0
sg10
I1951
sg11
S'2.0'
p169
sg13
S'src/../data/20thCenturyCorpus/1121Jones1951.txt'
p170
sg15
S'from here to eternity'
p171
sg17
S'Male'
p172
sg19
I36
sg20
S'European American'
p173
ssS'191'
p174
(dp175
g4
I0
sg5
S'Samuel Beckett'
p176
sg7
I0
sg8
I0
sg9
I6
sg10
I1956
sg11
S'1.0'
p177
sg13
S'src/../data/20thCenturyCorpus/191Beckett1956.txt'
p178
sg15
S'trilogy: molloy, malone dies, the unnamable'
p179
sg17
S'Male'
p180
sg19
I0
sg20
S'Irish'
p181
ssS'193'
p182
(dp183
g4
I0
sg5
S'samuel beckett'
p184
sg7
I0
sg8
I0
sg9
I6
sg10
I1953
sg11
S'1.0'
p185
sg13
S'src/../data/20thCenturyCorpus/193Beckett1953.txt'
p186
sg15
S'the unnamable'
p187
sg17
S'Male'
p188
sg19
I0
sg20
S'Irish'
p189
ssS'192'
p190
(dp191
g4
I0
sg5
S'Samuel Beckett'
p192
sg7
I0
sg8
I0
sg9
I6
sg10
I1955
sg11
S'1.0'
p193
sg13
S'src/../data/20thCenturyCorpus/192Beckett1955.txt'
p194
sg15
S'molloy'
p195
sg17
S'Male'
p196
sg19
I0
sg20
S'Irish'
p197
ssS'271'
p198
(dp199
g4
I0
sg5
S'Dan Brown'
p200
sg7
I0
sg8
I0
sg9
I0
sg10
I2003
sg11
S'1.0'
p201
sg13
S'src/../data/20thCenturyCorpus/271Brown2003.txt'
p202
sg15
S'the da vinci code'
p203
sg17
S'Male '
p204
sg19
I86
sg20
S'European American'
p205
ssS'272'
p206
(dp207
g4
I0
sg5
S'Dan Brown'
p208
sg7
I0
sg8
I0
sg9
I0
sg10
I2009
sg11
S'1.0'
p209
sg13
S'src/../data/20thCenturyCorpus/272Brown2009.txt'
p210
sg15
S'the lost symbol'
p211
sg17
S'Male '
p212
sg19
I91
sg20
S'European American'
p213
ssS'521'
p214
(dp215
g4
I0
sg5
S'Don DeLillo'
p216
sg7
I0
sg8
I0
sg9
I55
sg10
I1986
sg11
S'1.0'
p217
sg13
S'src/../data/20thCenturyCorpus/521DeLillo1988.txt'
p218
sg15
S'libra'
p219
sg17
S'Male'
p220
sg19
I0
sg20
S'European American'
p221
ssS'522'
p222
(dp223
g4
I0
sg5
S'Don DeLillo'
p224
sg7
I0
sg8
I0
sg9
I19
sg10
I1997
sg11
S'1.0'
p225
sg13
S'src/../data/20thCenturyCorpus/522DeLillo1997.txt'
p226
sg15
S'underworld'
p227
sg17
S'Male'
p228
sg19
I0
sg20
S'European American'
p229
ssS'523'
p230
(dp231
g4
I0
sg5
S'Don DeLillo'
p232
sg7
I0
sg8
I82
sg9
I0
sg10
I1985
sg11
S'1.0'
p233
sg13
S'src/../data/20thCenturyCorpus/523DeLillo1985.txt'
p234
sg15
S'white noise'
p235
sg17
S'Male'
p236
sg19
I0
sg20
S'European American'
p237
ssS'1401'
p238
(dp239
g4
I0
sg5
S'Ben Marcus'
p240
sg7
I0
sg8
I0
sg9
I72
sg10
I1995
sg11
S'1.0'
p241
sg13
S'src/../data/20thCenturyCorpus/1401Marcus1995.txt'
p242
sg15
S'the age of wire and string'
p243
sg17
S'Male'
p244
sg19
I0
sg20
S'European American'
p245
ssS'1011'
p246
(dp247
g4
I0
sg5
S'L. Ron Hubbard'
p248
sg7
I3
sg8
I0
sg9
I0
sg10
I1982
sg11
S'1.0'
p249
sg13
S'src/../data/20thCenturyCorpus/1011Hubbard1982.txt'
p250
sg15
S'battlefield earth'
p251
sg17
S'Male'
p252
sg19
I0
sg20
S'European American'
p253
ssS'1012'
p254
(dp255
g4
I0
sg5
S'L. Ron Hubbard'
p256
sg7
I10
sg8
I0
sg9
I0
sg10
I1940
sg11
S'1.0'
p257
sg13
S'src/../data/20thCenturyCorpus/1012Hubbard1940.txt'
p258
sg15
S'fear'
p259
sg17
S'Male'
p260
sg19
I0
sg20
S'European American'
p261
ssS'1103'
p262
(dp263
g4
I32
sg5
S'Henry James'
p264
sg7
I0
sg8
I0
sg9
I0
sg10
I1904
sg11
S'1.0'
p265
sg13
S'src/../data/20thCenturyCorpus/1103James1904.txt'
p266
sg15
S'the golden bowl'
p267
sg17
S'Male'
p268
sg19
I0
sg20
S'European American'
p269
ssS'1231'
p270
(dp271
g4
I0
sg5
S'John Knowles'
p272
sg7
I0
sg8
I67
sg9
I0
sg10
I1959
sg11
S'1.0'
p273
sg13
S'src/../data/20thCenturyCorpus/1231Knowles1959.txt'
p274
sg15
S'a separate peace'
p275
sg17
S'Male'
p276
sg19
I0
sg20
S'European American'
p277
ssS'443'
p278
(dp279
g4
I47
sg5
S'Joseph Conrad'
p280
sg7
I0
sg8
I0
sg9
I0
sg10
I1904
sg11
S'1.0'
p281
sg13
S'src/../data/20thCenturyCorpus/443Conrad1904.txt'
p282
sg15
S'nostromo'
p283
sg17
S'Male'
p284
sg19
I0
sg20
S'British'
p285
ssS'442'
p286
(dp287
g4
I85
sg5
S'Joseph Conrad'
p288
sg7
I0
sg8
I86
sg9
I0
sg10
I1900
sg11
S'2.0'
p289
sg13
S'src/../data/20thCenturyCorpus/442Conrad1900.txt'
p290
sg15
S'lord jim'
p291
sg17
S'Male'
p292
sg19
I0
sg20
S'British'
p293
ssS'441'
p294
(dp295
g4
I67
sg5
S'Joseph Conrad'
p296
sg7
I43
sg8
I21
sg9
I28
sg10
I1902
sg11
S'4.0'
p297
sg13
S'src/../data/20thCenturyCorpus/441Conrad1899.txt'
p298
sg15
S'heart of darkness'
p299
sg17
S'Male'
p300
sg19
I0
sg20
S'British'
p301
ssS'1331'
p302
(dp303
g4
I0
sg5
S'Sinclair Lewis'
p304
sg7
I78
sg8
I0
sg9
I0
sg10
I1925
sg11
S'1.0'
p305
sg13
S'src/../data/20thCenturyCorpus/1331Lewis1925.txt'
p306
sg15
S'arrowsmith'
p307
sg17
S'Male'
p308
sg19
I0
sg20
S'European American'
p309
ssS'1333'
p310
(dp311
g4
I0
sg5
S'Sinclair Lewis'
p312
sg7
I0
sg8
I0
sg9
I0
sg10
I1927
sg11
S'1.0'
p313
sg13
S'src/../data/20thCenturyCorpus/1333Lewis1927.txt'
p314
sg15
S'elmer gantry'
p315
sg17
S'Male'
p316
sg19
I15
sg20
S'European American'
p317
ssS'444'
p318
(dp319
g4
I46
sg5
S'Joseph Conrad'
p320
sg7
I0
sg8
I0
sg9
I0
sg10
I1907
sg11
S'1.0'
p321
sg13
S'src/../data/20thCenturyCorpus/444Conrad1907.txt'
p322
sg15
S'the secret agent'
p323
sg17
S'Male'
p324
sg19
I0
sg20
S'British'
p325
ssS'102'
p326
(dp327
g4
I0
sg5
S'Jean M. Auel'
p328
sg7
I0
sg8
I0
sg9
I0
sg10
I1990
sg11
S'1.0'
p329
sg13
S'src/../data/20thCenturyCorpus/102Auel1990.txt'
p330
sg15
S'the plains of passage'
p331
sg17
S'Female'
p332
sg19
I73
sg20
S'European American'
p333
ssS'101'
p334
(dp335
g4
I0
sg5
S'Jean M. Auel'
p336
sg7
I0
sg8
I0
sg9
I0
sg10
I1985
sg11
S'1.0'
p337
sg13
S'src/../data/20thCenturyCorpus/101Auel1985.txt'
p338
sg15
S'the mammoth hunters'
p339
sg17
S'Female'
p340
sg19
I68
sg20
S'European American'
p341
ssS'902'
p342
(dp343
g4
I0
sg5
S'Arthur Hailey'
p344
sg7
I0
sg8
I0
sg9
I0
sg10
I1971
sg11
S'1.0'
p345
sg13
S'src/../data/20thCenturyCorpus/902Hailey1971.txt'
p346
sg15
S'wheels'
p347
sg17
S'Male'
p348
sg19
I55
sg20
S'British'
p349
ssS'901'
p350
(dp351
g4
I0
sg5
S'Arthur Hailey'
p352
sg7
I0
sg8
I0
sg9
I0
sg10
I1968
sg11
S'1.0'
p353
sg13
S'src/../data/20thCenturyCorpus/901Hailey1968.txt'
p354
sg15
S'airport'
p355
sg17
S'Male'
p356
sg19
I52
sg20
S'British'
p357
ssS'2041'
p358
(dp359
g4
I0
sg5
S'David Foster Wallace'
p360
sg7
I0
sg8
I0
sg9
I71
sg10
I1996
sg11
S'1.0'
p361
sg13
S'src/../data/20thCenturyCorpus/2041Wallace1996.txt'
p362
sg15
S'infinite jest'
p363
sg17
S'Male'
p364
sg19
I0
sg20
S'European American'
p365
ssS'31'
p366
(dp367
g4
I0
sg5
S'Douglas Adams'
p368
sg7
I51
sg8
I72
sg9
I0
sg10
I1979
sg11
S'2.0'
p369
sg13
S'src/../data/20thCenturyCorpus/31Adams1979.txt'
p370
sg15
S"the hitchhiker's guide to the galaxy"
p371
sg17
S'Male'
p372
sg19
I0
sg20
S'British'
p373
ssS'1241'
p374
(dp375
g4
I8
sg5
S'Arthur Koestler'
p376
sg7
I0
sg8
I0
sg9
I0
sg10
I1940
sg11
S'1.0'
p377
sg13
S'src/../data/20thCenturyCorpus/1241Koestler1941.txt'
p378
sg15
S'darkness at noon'
p379
sg17
S'Male'
p380
sg19
I0
sg20
S'British'
p381
ssS'1531'
p382
(dp383
g4
I95
sg5
S'Iris Murdoch'
p384
sg7
I0
sg8
I0
sg9
I0
sg10
I1954
sg11
S'1.0'
p385
sg13
S'src/../data/20thCenturyCorpus/1531Murdoch1954.txt'
p386
sg15
S'under the net'
p387
sg17
S'Female'
p388
sg19
I0
sg20
S'British'
p389
ssS'2161'
p390
(dp391
g4
I0
sg5
S'Terri Windling'
p392
sg7
I70
sg8
I0
sg9
I0
sg10
I1996
sg11
S'1.0'
p393
sg13
S'src/../data/20thCenturyCorpus/2161Windling1996.txt'
p394
sg15
S'the wood wife'
p395
sg17
S'Female'
p396
sg19
I0
sg20
S'European American'
p397
ssS'431'
p398
(dp399
g4
I0
sg5
S'J. M. Coetzee'
p400
sg7
I0
sg8
I0
sg9
I92
sg10
I1980
sg11
S'1.0'
p401
sg13
S'src/../data/20thCenturyCorpus/431Coetzee1980.txt'
p402
sg15
S'waiting for the barbarians'
p403
sg17
S'Male'
p404
sg19
I0
sg20
S'Austrailian'
p405
ssS'331'
p406
(dp407
g4
I91
sg5
S'Erskine Caldwell'
p408
sg7
I0
sg8
I0
sg9
I0
sg10
I1932
sg11
S'1.0'
p409
sg13
S'src/../data/20thCenturyCorpus/331Caldwell1932.txt'
p410
sg15
S'tobacco road'
p411
sg17
S'Male'
p412
sg19
I0
sg20
S'European American'
p413
ssS'1901'
p414
(dp415
g4
I0
sg5
S'Theodore Sturgeon'
p416
sg7
I0
sg8
I0
sg9
I93
sg10
I1951
sg11
S'1.0'
p417
sg13
S'src/../data/20thCenturyCorpus/1901Sturgeon1953.txt'
p418
sg15
S'more than human'
p419
sg17
S'Male'
p420
sg19
I0
sg20
S'European American'
p421
ssS'851'
p422
(dp423
g4
I14
sg5
S'Robert Graves'
p424
sg7
I74
sg8
I0
sg9
I0
sg10
I1934
sg11
S'2.0'
p425
sg13
S'src/../data/20thCenturyCorpus/851Graves1934.txt'
p426
sg15
S'i, claudius'
p427
sg17
S'Male'
p428
sg19
I0
sg20
S'British'
p429
ssS'91'
p430
(dp431
g4
I0
sg5
S'Margaret Atwood'
p432
sg7
I53
sg8
I0
sg9
I0
sg10
I1985
sg11
S'1.0'
p433
sg13
S'src/../data/20thCenturyCorpus/91Atwood1985.txt'
p434
sg15
S"the handmaid's tale"
p435
sg17
S'Female'
p436
sg19
I0
sg20
S'European Canadian'
p437
ssS'1991'
p438
(dp439
g4
I0
sg5
S'John Updike'
p440
sg7
I0
sg8
I97
sg9
I0
sg10
I1960
sg11
S'1.0'
p441
sg13
S'src/../data/20thCenturyCorpus/1991Updike1960.txt'
p442
sg15
S'rabbit, run'
p443
sg17
S'Male'
p444
sg19
I0
sg20
S'European American'
p445
ssS'1621'
p446
(dp447
g4
I0
sg5
S'Robert Pirsig'
p448
sg7
I73
sg8
I0
sg9
I0
sg10
I1974
sg11
S'1.0'
p449
sg13
S'src/../data/20thCenturyCorpus/1621Pirsig1974.txt'
p450
sg15
S'zen and the art of motorcycle maintenance'
p451
sg17
S'Male'
p452
sg19
I0
sg20
S'European American'
p453
ssS'741'
p454
(dp455
g4
I0
sg5
S'Edna Ferber'
p456
sg7
I0
sg8
I0
sg9
I0
sg10
I1930
sg11
S'1.0'
p457
sg13
S'src/../data/20thCenturyCorpus/741Ferber1930.txt'
p458
sg15
S'cimarron'
p459
sg17
S'Female'
p460
sg19
I18
sg20
S'European American'
p461
ssS'742'
p462
(dp463
g4
I0
sg5
S'Edna Ferber'
p464
sg7
I0
sg8
I0
sg9
I0
sg10
I1924
sg11
S'1.0'
p465
sg13
S'src/../data/20thCenturyCorpus/742Ferber1924.txt'
p466
sg15
S'so big'
p467
sg17
S'Female'
p468
sg19
I12
sg20
S'European American'
p469
ssS'551'
p470
(dp471
g4
I86
sg5
S'E. L. Doctorow'
p472
sg7
I0
sg8
I0
sg9
I0
sg10
I1975
sg11
S'2.0'
p473
sg13
S'src/../data/20thCenturyCorpus/551Doctorow1975.txt'
p474
sg15
S'ragtime'
p475
sg17
S'Male'
p476
sg19
I58
sg20
S'European American'
p477
ssS'231'
p478
(dp479
g4
I84
sg5
S'Elizabeth Bowen'
p480
sg7
I0
sg8
I0
sg9
I0
sg10
I1938
sg11
S'1.0'
p481
sg13
S'src/../data/20thCenturyCorpus/231Bowen1938.txt'
p482
sg15
S'the death of the heart'
p483
sg17
S'Female'
p484
sg19
I0
sg20
S'Irish'
p485
ssS'1051'
p486
(dp487
g4
I5
sg5
S'Aldous Huxley'
p488
sg7
I18
sg8
I16
sg9
I44
sg10
I1932
sg11
S'4.0'
p489
sg13
S'src/../data/20thCenturyCorpus/1051Huxley1932.txt'
p490
sg15
S'brave new world'
p491
sg17
S'Male'
p492
sg19
I0
sg20
S'British'
p493
ssS'1052'
p494
(dp495
g4
I44
sg5
S'Aldous Huxley'
p496
sg7
I0
sg8
I0
sg9
I0
sg10
I1928
sg11
S'1.0'
p497
sg13
S'src/../data/20thCenturyCorpus/1052Huxley1928.txt'
p498
sg15
S'point counter point'
p499
sg17
S'Male'
p500
sg19
I0
sg20
S'British'
p501
ssS'1191'
p502
(dp503
g4
I55
sg5
S'Jack Kerouac'
p504
sg7
I42
sg8
I31
sg9
I38
sg10
I1957
sg11
S'4.0'
p505
sg13
S'src/../data/20thCenturyCorpus/1191Kerouac1957.txt'
p506
sg15
S'on the road'
p507
sg17
S'Male'
p508
sg19
I0
sg20
S'European American'
p509
ssS'2221'
p510
(dp511
g4
I0
sg5
S'Herman Wouk'
p512
sg7
I0
sg8
I0
sg9
I0
sg10
I1955
sg11
S'1.0'
p513
sg13
S'src/../data/20thCenturyCorpus/2221Wouk1955.txt'
p514
sg15
S'marjorie morningstar'
p515
sg17
S'Male'
p516
sg19
I39
sg20
S'European American'
p517
ssS'1691'
p518
(dp519
g4
I0
sg5
S'Erich Maria Remarque'
p520
sg7
I0
sg8
I0
sg9
I0
sg10
I1929
sg11
S'1.0'
p521
sg13
S'src/../data/20thCenturyCorpus/1691Remarque1929.txt'
p522
sg15
S'all quiet on the western front'
p523
sg17
S'Male'
p524
sg19
I17
sg20
S'German'
p525
ssS'1751'
p526
(dp527
g4
I52
sg5
S'Philip Roth'
p528
sg7
I0
sg8
I0
sg9
I0
sg10
I1969
sg11
S'1.0'
p529
sg13
S'src/../data/20thCenturyCorpus/1751Roth1969.txt'
p530
sg15
S"portnoy's complaint"
p531
sg17
S'Male'
p532
sg19
I53
sg20
S'European American'
p533
ssS'1171'
p534
(dp535
g4
I0
sg5
S'Thomas Keneally'
p536
sg7
I0
sg8
I41
sg9
I0
sg10
I1982
sg11
S'1.0'
p537
sg13
S'src/../data/20thCenturyCorpus/1171Keneally1982.txt'
p538
sg15
S"schindler's list"
p539
sg17
S'Male'
p540
sg19
I0
sg20
S'Austrailian'
p541
ssS'141'
p542
(dp543
g4
I0
sg5
S'J.G. Ballard'
p544
sg7
I0
sg8
I0
sg9
I40
sg10
I1973
sg11
S'1.0'
p545
sg13
S'src/../data/20thCenturyCorpus/141Ballard1973.txt'
p546
sg15
S'crash'
p547
sg17
S'Male'
p548
sg19
I0
sg20
S'British'
p549
ssS'612'
p550
(dp551
g4
I0
sg5
S'Daphne du Maurier'
p552
sg7
I0
sg8
I0
sg9
I0
sg10
I1946
sg11
S'1.0'
p553
sg13
S'src/../data/20thCenturyCorpus/612Maurier1946.txt'
p554
sg15
S"the king's general"
p555
sg17
S'Female'
p556
sg19
I31
sg20
S'British'
p557
ssS'1271'
p558
(dp559
g4
I0
sg5
S'Stieg Larsson'
p560
sg7
I0
sg8
I0
sg9
I0
sg10
I2010
sg11
S'1.0'
p561
sg13
S'src/../data/20thCenturyCorpus/1271Larsson2007.txt'
p562
sg15
S'the girl who kicked the hornets nest'
p563
sg17
S'Male'
p564
sg19
I92
sg20
S'Swedish'
p565
ssS'611'
p566
(dp567
g4
I0
sg5
S'Daphne du Maurier'
p568
sg7
I0
sg8
I71
sg9
I0
sg10
I1938
sg11
S'1.0'
p569
sg13
S'src/../data/20thCenturyCorpus/611Maurier1938.txt'
p570
sg15
S'rebecca'
p571
sg17
S'Female'
p572
sg19
I0
sg20
S'British'
p573
ssS'1882'
p574
(dp575
g4
I10
sg5
S'John Steinbeck'
p576
sg7
I22
sg8
I3
sg9
I34
sg10
I1939
sg11
S'5.0'
p577
sg13
S'src/../data/20thCenturyCorpus/1882Steinbeck1939.txt'
p578
sg15
S'the grapes of wrath'
p579
sg17
S'Male'
p580
sg19
I24
sg20
S'European American'
p581
ssS'1881'
p582
(dp583
g4
I0
sg5
S'John Steinbeck'
p584
sg7
I0
sg8
I12
sg9
I0
sg10
I1937
sg11
S'1.0'
p585
sg13
S'src/../data/20thCenturyCorpus/1881Steinbeck1937.txt'
p586
sg15
S'of mice and men'
p587
sg17
S'Male'
p588
sg19
I0
sg20
S'European American'
p589
ssS'2121'
p590
(dp591
g4
I73
sg5
S'Nathaniel West'
p592
sg7
I0
sg8
I0
sg9
I51
sg10
I1939
sg11
S'2.0'
p593
sg13
S'src/../data/20thCenturyCorpus/2121West1939.txt'
p594
sg15
S'the day of the locust'
p595
sg17
S'Male'
p596
sg19
I0
sg20
S'European American'
p597
ssS'1284'
p598
(dp599
g4
I49
sg5
S'D.H. Lawrence'
p600
sg7
I0
sg8
I75
sg9
I24
sg10
I1921
sg11
S'3.0'
p601
sg13
S'src/../data/20thCenturyCorpus/1284Lawrence1920.txt'
p602
sg15
S'women in love'
p603
sg17
S'Male'
p604
sg19
I0
sg20
S'British'
p605
ssS'1281'
p606
(dp607
g4
I0
sg5
S'D.H. Lawrence'
p608
sg7
I0
sg8
I48
sg9
I0
sg10
I1928
sg11
S'1.0'
p609
sg13
S'src/../data/20thCenturyCorpus/1281Lawrence1928.txt'
p610
sg15
S"lady chatterley's lover"
p611
sg17
S'Male'
p612
sg19
I0
sg20
S'British'
p613
ssS'1283'
p614
(dp615
g4
I48
sg5
S'D.H. Lawrence'
p616
sg7
I0
sg8
I0
sg9
I0
sg10
I1915
sg11
S'1.0'
p617
sg13
S'src/../data/20thCenturyCorpus/1283Lawrence1915.txt'
p618
sg15
S'the rainbow'
p619
sg17
S'Male'
p620
sg19
I0
sg20
S'British'
p621
ssS'1282'
p622
(dp623
g4
I9
sg5
S'D.H. Lawrence'
p624
sg7
I0
sg8
I64
sg9
I0
sg10
I1913
sg11
S'2.0'
p625
sg13
S'src/../data/20thCenturyCorpus/1282Lawrence1913.txt'
p626
sg15
S'sons and lovers'
p627
sg17
S'Male'
p628
sg19
I0
sg20
S'British'
p629
ssS'946'
p630
(dp631
g4
I0
sg5
S'Robert Heinlein'
p632
sg7
I15
sg8
I0
sg9
I0
sg10
I1966
sg11
S'1.0'
p633
sg13
S'src/../data/20thCenturyCorpus/946Heinlein1966.txt'
p634
sg15
S'the moon is a harsh mistress'
p635
sg17
S'Male'
p636
sg19
I0
sg20
S'European American'
p637
ssS'947'
p638
(dp639
g4
I0
sg5
S'Robert Heinlein'
p640
sg7
I83
sg8
I0
sg9
I0
sg10
I1951
sg11
S'1.0'
p641
sg13
S'src/../data/20thCenturyCorpus/947Heinlein1951.txt'
p642
sg15
S'the puppet masters'
p643
sg17
S'Male'
p644
sg19
I0
sg20
S'European American'
p645
ssS'944'
p646
(dp647
g4
I0
sg5
S'Robert Heinlein'
p648
sg7
I16
sg8
I0
sg9
I0
sg10
I1961
sg11
S'1.0'
p649
sg13
S'src/../data/20thCenturyCorpus/944Heinlein1961.txt'
p650
sg15
S'stranger in a strange land'
p651
sg17
S'Male'
p652
sg19
I0
sg20
S'European American'
p653
ssS'945'
p654
(dp655
g4
I0
sg5
S'Robert Heinlein'
p656
sg7
I72
sg8
I0
sg9
I0
sg10
I1956
sg11
S'1.0'
p657
sg13
S'src/../data/20thCenturyCorpus/945Heinlein1956.txt'
p658
sg15
S'the door into summer'
p659
sg17
S'Male'
p660
sg19
I0
sg20
S'European American'
p661
ssS'942'
p662
(dp663
g4
I0
sg5
S'Robert Heinlein'
p664
sg7
I86
sg8
I0
sg9
I0
sg10
I1956
sg11
S'1.0'
p665
sg13
S'src/../data/20thCenturyCorpus/942Heinlein1956.txt'
p666
sg15
S'double star'
p667
sg17
S'Male'
p668
sg19
I0
sg20
S'European American'
p669
ssS'943'
p670
(dp671
g4
I0
sg5
S'Robert Heinlein'
p672
sg7
I62
sg8
I0
sg9
I0
sg10
I1959
sg11
S'1.0'
p673
sg13
S'src/../data/20thCenturyCorpus/943Heinlein1959.txt'
p674
sg15
S'starship troopers'
p675
sg17
S'Male'
p676
sg19
I0
sg20
S'European American'
p677
ssS'941'
p678
(dp679
g4
I0
sg5
S'Robert Heinlein'
p680
sg7
I87
sg8
I0
sg9
I0
sg10
I1957
sg11
S'1.0'
p681
sg13
S'src/../data/20thCenturyCorpus/941Heinlein1957.txt'
p682
sg15
S'citizen of the galaxy'
p683
sg17
S'Male'
p684
sg19
I0
sg20
S'European American'
p685
ssS'1472'
p686
(dp687
g4
I0
sg5
S'James A. Michener'
p688
sg7
I0
sg8
I0
sg9
I0
sg10
I1978
sg11
S'1.0'
p689
sg13
S'src/../data/20thCenturyCorpus/1472Michener1978.txt'
p690
sg15
S'chesapeake'
p691
sg17
S'Male'
p692
sg19
I61
sg20
S'European American'
p693
ssS'1473'
p694
(dp695
g4
I0
sg5
S'James A. Michener'
p696
sg7
I0
sg8
I0
sg9
I0
sg10
I1980
sg11
S'1.0'
p697
sg13
S'src/../data/20thCenturyCorpus/1473Michener1980.txt'
p698
sg15
S'the covenant'
p699
sg17
S'Male'
p700
sg19
I63
sg20
S'European American'
p701
ssS'1471'
p702
(dp703
g4
I0
sg5
S'James A. Michener'
p704
sg7
I0
sg8
I0
sg9
I0
sg10
I1974
sg11
S'1.0'
p705
sg13
S'src/../data/20thCenturyCorpus/1471Michener1974.txt'
p706
sg15
S'centennial'
p707
sg17
S'Male'
p708
sg19
I57
sg20
S'European American'
p709
ssS'1474'
p710
(dp711
g4
I0
sg5
S'James A. Michener'
p712
sg7
I0
sg8
I0
sg9
I0
sg10
I1965
sg11
S'1.0'
p713
sg13
S'src/../data/20thCenturyCorpus/1474Michener1965.txt'
p714
sg15
S'the source'
p715
sg17
S'Male'
p716
sg19
I49
sg20
S'European American'
p717
ssS'1571'
p718
(dp719
g4
I0
sg5
S"Flannery O'Connor"
p720
sg7
I0
sg8
I61
sg9
I0
sg10
I1953
sg11
S'1.0'
p721
sg13
S'src/../data/20thCenturyCorpus/1571OConnor1953.txt'
p722
sg15
S'a good man is hard to find'
p723
sg17
S'Female'
p724
sg19
I0
sg20
S'European American'
p725
ssS'681'
p726
(dp727
g4
I19
sg5
S'Ralph Ellison'
p728
sg7
I69
sg8
I24
sg9
I18
sg10
I1952
sg11
S'4.0'
p729
sg13
S'src/../data/20thCenturyCorpus/681Ellison1952.txt'
p730
sg15
S'invisible man'
p731
sg17
S'Male'
p732
sg19
I0
sg20
S'African American'
p733
ssS'1301'
p734
(dp735
g4
I0
sg5
S'Ursula K. Le Guin'
p736
sg7
I0
sg8
I0
sg9
I57
sg10
I1985
sg11
S'1.0'
p737
sg13
S'src/../data/20thCenturyCorpus/1301Le Guin1985.txt'
p738
sg15
S'always coming home'
p739
sg17
S'Female'
p740
sg19
I0
sg20
S'European American'
p741
ssS'131'
p742
(dp743
g4
I39
sg5
S'James Baldwin'
p744
sg7
I0
sg8
I36
sg9
I0
sg10
I1953
sg11
S'2.0'
p745
sg13
S'src/../data/20thCenturyCorpus/131Baldwin1953.txt'
p746
sg15
S'go tell it on the mountain'
p747
sg17
S'Male'
p748
sg19
I0
sg20
S'African American'
p749
ssS'491'
p750
(dp751
g4
I0
sg5
S'Robertson Davies'
p752
sg7
I40
sg8
I0
sg9
I0
sg10
I1970
sg11
S'1.0'
p753
sg13
S'src/../data/20thCenturyCorpus/491Davies1970.txt'
p754
sg15
S'fifth business'
p755
sg17
S'Male'
p756
sg19
I0
sg20
S'European Canadian'
p757
ssS'492'
p758
(dp759
g4
I0
sg5
S'Robertson Davies'
p760
sg7
I99
sg8
I0
sg9
I0
sg10
I1994
sg11
S'1.0'
p761
sg13
S'src/../data/20thCenturyCorpus/492Davies1994.txt'
p762
sg15
S'the cunning man'
p763
sg17
S'Male'
p764
sg19
I0
sg20
S'European Canadian'
p765
ssS'1831'
p766
(dp767
g4
I0
sg5
S'Gilbert Sorrentino'
p768
sg7
I0
sg8
I0
sg9
I94
sg10
I1979
sg11
S'1.0'
p769
sg13
S'src/../data/20thCenturyCorpus/1831Sorrentino1979.txt'
p770
sg15
S'mulligan stew'
p771
sg17
S'Male'
p772
sg19
I0
sg20
S'European American'
p773
ssS'21'
p774
(dp775
g4
I0
sg5
S'Kathy Acker'
p776
sg7
I0
sg8
I0
sg9
I99
sg10
I1990
sg11
S'1.0'
p777
sg13
S'src/../data/20thCenturyCorpus/21Acker1990.txt'
p778
sg15
S'in memoriam to identity'
p779
sg17
S'Female'
p780
sg19
I0
sg20
S'European American'
p781
ssS'1371'
p782
(dp783
g4
I11
sg5
S'Malcolm Lowry'
p784
sg7
I39
sg8
I0
sg9
I14
sg10
I1949
sg11
S'3.0'
p785
sg13
S'src/../data/20thCenturyCorpus/1371Lowry1947.txt'
p786
sg15
S'under the volcano'
p787
sg17
S'Male'
p788
sg19
I0
sg20
S'British'
p789
ssS'2151'
p790
(dp791
g4
I37
sg5
S'Thornton Wilder'
p792
sg7
I0
sg8
I0
sg9
I0
sg10
I1928
sg11
S'2.0'
p793
sg13
S'src/../data/20thCenturyCorpus/2151Wilder1928.txt'
p794
sg15
S'the bridge of san luis rey'
p795
sg17
S'Male'
p796
sg19
I16
sg20
S'European American'
p797
ssS'401'
p798
(dp799
g4
I0
sg5
S'Winston Churchill    '
p800
sg7
I0
sg8
I0
sg9
I0
sg10
I1913
sg11
S'1.0'
p801
sg13
S'src/../data/20thCenturyCorpus/401Churchill1913.txt'
p802
sg15
S'the inside of the cup'
p803
sg17
S'Male'
p804
sg19
I1
sg20
S'European American'
p805
ssS'451'
p806
(dp807
g4
I0
sg5
S'Robert Coover'
p808
sg7
I0
sg8
I0
sg9
I74
sg10
I1969
sg11
S'1.0'
p809
sg13
S'src/../data/20thCenturyCorpus/451Coover1969.txt'
p810
sg15
S'pricksongs and descants'
p811
sg17
S'Male'
p812
sg19
I0
sg20
S'European American'
p813
ssS'931'
p814
(dp815
g4
I0
sg5
S'John Hawkes'
p816
sg7
I0
sg8
I0
sg9
I49
sg10
I1949
sg11
S'1.0'
p817
sg13
S'src/../data/20thCenturyCorpus/931Hawkes1949.txt'
p818
sg15
S'the cannibal'
p819
sg17
S'Male'
p820
sg19
I0
sg20
S'European American'
p821
ssS'2011'
p822
(dp823
g4
I0
sg5
S'William T. Vollmann'
p824
sg7
I0
sg8
I0
sg9
I26
sg10
I1993
sg11
S'1.0'
p825
sg13
S'src/../data/20thCenturyCorpus/2011Vollmann1993.txt'
p826
sg15
S'the rifles'
p827
sg17
S'Male'
p828
sg19
I0
sg20
S'European American'
p829
ssS'2012'
p830
(dp831
g4
I0
sg5
S'William T. Vollmann'
p832
sg7
I0
sg8
I0
sg9
I88
sg10
I1987
sg11
S'1.0'
p833
sg13
S'src/../data/20thCenturyCorpus/2012Vollmann1987.txt'
p834
sg15
S'you bright and risen angels'
p835
sg17
S'Male'
p836
sg19
I0
sg20
S'European American'
p837
ssS'1951'
p838
(dp839
g4
I0
sg5
S'Alexander Theroux'
p840
sg7
I0
sg8
I0
sg9
I84
sg10
I1981
sg11
S'1.0'
p841
sg13
S'src/../data/20thCenturyCorpus/1951Theroux1981.txt'
p842
sg15
S"darconville's cat"
p843
sg17
S'Male'
p844
sg19
I0
sg20
S'European American'
p845
ssS'371'
p846
(dp847
g4
I61
sg5
S'Willa Cather'
p848
sg7
I0
sg8
I89
sg9
I0
sg10
I1927
sg11
S'2.0'
p849
sg13
S'src/../data/20thCenturyCorpus/371Cather1927.txt'
p850
sg15
S'death comes for the archbishop'
p851
sg17
S'Female'
p852
sg19
I0
sg20
S'European American'
p853
ssS'373'
p854
(dp855
g4
I0
sg5
S'Willa Cather'
p856
sg7
I0
sg8
I83
sg9
I0
sg10
I1913
sg11
S'1.0'
p857
sg13
S'src/../data/20thCenturyCorpus/373Cather1913.txt'
p858
sg15
S'o pioneers!'
p859
sg17
S'Female'
p860
sg19
I0
sg20
S'European American'
p861
ssS'372'
p862
(dp863
g4
I0
sg5
S'Willa Cather'
p864
sg7
I94
sg8
I51
sg9
I0
sg10
I1918
sg11
S'2.0'
p865
sg13
S'src/../data/20thCenturyCorpus/372Cather1918.txt'
p866
sg15
S'my antonia'
p867
sg17
S'Female'
p868
sg19
I0
sg20
S'European American'
p869
ssS'821'
p870
(dp871
g4
I0
sg5
S'William Gibson'
p872
sg7
I0
sg8
I0
sg9
I36
sg10
I1986
sg11
S'1.0'
p873
sg13
S'src/../data/20thCenturyCorpus/821Gibson1986.txt'
p874
sg15
S'cyberspace trilogy: neuromancer, count zero, mona lisa overdrive'
p875
sg17
S'Male'
p876
sg19
I0
sg20
S'European Canadian'
p877
ssS'823'
p878
(dp879
g4
I0
sg5
S'William Gibson'
p880
sg7
I0
sg8
I0
sg9
I36
sg10
I1984
sg11
S'1.0'
p881
sg13
S'src/../data/20thCenturyCorpus/823Gibson1984.txt'
p882
sg15
S'neuromancer'
p883
sg17
S'Male'
p884
sg19
I0
sg20
S'European American'
p885
ssS'822'
p886
(dp887
g4
I0
sg5
S'William Gibson'
p888
sg7
I0
sg8
I0
sg9
I36
sg10
I1988
sg11
S'1.0'
p889
sg13
S'src/../data/20thCenturyCorpus/822Gibson1988.txt'
p890
sg15
S'mona lisa overdrive'
p891
sg17
S'Male'
p892
sg19
I0
sg20
S'European American'
p893
ssS'701'
p894
(dp895
g4
I0
sg5
S'John Erskine'
p896
sg7
I0
sg8
I0
sg9
I0
sg10
I1926
sg11
S'1.0'
p897
sg13
S'src/../data/20thCenturyCorpus/701Erskine1926.txt'
p898
sg15
S'the private life of helen of troy'
p899
sg17
S'Male'
p900
sg19
I14
sg20
S'European American'
p901
ssS'391'
p902
(dp903
g4
I0
sg5
S'Kate Chopin'
p904
sg7
I0
sg8
I50
sg9
I0
sg10
I1899
sg11
S'1.0'
p905
sg13
S'src/../data/20thCenturyCorpus/391Chopin1899.txt'
p906
sg15
S'the awakening'
p907
sg17
S'Female'
p908
sg19
I0
sg20
S'European American'
p909
ssS'81'
p910
(dp911
g4
I0
sg5
S'Gertrude Atherton'
p912
sg7
I0
sg8
I0
sg9
I0
sg10
I1923
sg11
S'1.0'
p913
sg13
S'src/../data/20thCenturyCorpus/81Atherton1923.txt'
p914
sg15
S'black oxen'
p915
sg17
S'Female'
p916
sg19
I11
sg20
S'European American'
p917
ssS'1711'
p918
(dp919
g4
I0
sg5
S'Alexandra Ripley'
p920
sg7
I0
sg8
I0
sg9
I0
sg10
I1991
sg11
S'1.0'
p921
sg13
S'src/../data/20thCenturyCorpus/1711Ripley1991.txt'
p922
sg15
S'scarlett'
p923
sg17
S'Female'
p924
sg19
I74
sg20
S'European American'
p925
ssS'792'
p926
(dp927
g4
I0
sg5
S'William Gaddis'
p928
sg7
I61
sg8
I0
sg9
I27
sg10
I1955
sg11
S'2.0'
p929
sg13
S'src/../data/20thCenturyCorpus/792Gaddis1955.txt'
p930
sg15
S'the recognitions'
p931
sg17
S'Male'
p932
sg19
I0
sg20
S'European American'
p933
ssS'791'
p934
(dp935
g4
I0
sg5
S'William Gaddis'
p936
sg7
I0
sg8
I0
sg9
I17
sg10
I1975
sg11
S'1.0'
p937
sg13
S'src/../data/20thCenturyCorpus/791Gaddis1975.txt'
p938
sg15
S'jr'
p939
sg17
S'Male'
p940
sg19
I0
sg20
S'European American'
p941
ssS'1652'
p942
(dp943
g4
I0
sg5
S'Thomas Pynchon'
p944
sg7
I85
sg8
I0
sg9
I0
sg10
I1963
sg11
S'1.0'
p945
sg13
S'src/../data/20thCenturyCorpus/1652Pynchon1963.txt'
p946
sg15
S'v.'
p947
sg17
S'Male'
p948
sg19
I0
sg20
S'European American'
p949
ssS'1651'
p950
(dp951
g4
I0
sg5
S'Thomas Pynchon'
p952
sg7
I21
sg8
I0
sg9
I3
sg10
I1973
sg11
S'2.0'
p953
sg13
S'src/../data/20thCenturyCorpus/1651Pynchon1973.txt'
p954
sg15
S"gravity's rainbow"
p955
sg17
S'Male'
p956
sg19
I0
sg20
S'European American'
p957
ssS'582'
p958
(dp959
g4
I0
sg5
S'Lloyd C. Douglas'
p960
sg7
I0
sg8
I0
sg9
I0
sg10
I1948
sg11
S'1.0'
p961
sg13
S'src/../data/20thCenturyCorpus/582Douglas1948.txt'
p962
sg15
S'the big fisherman'
p963
sg17
S'Male'
p964
sg19
I33
sg20
S'European American'
p965
ssS'583'
p966
(dp967
g4
I0
sg5
S'Lloyd C. Douglas*'
p968
sg7
I0
sg8
I0
sg9
I0
sg10
I1953
sg11
S'1.0'
p969
sg13
S'src/../data/20thCenturyCorpus/583Douglas1942.txt'
p970
sg15
S'the robe'
p971
sg17
S'Male'
p972
sg19
I28
sg20
S'European American'
p973
ssS'581'
p974
(dp975
g4
I0
sg5
S'Lloyd C. Douglas'
p976
sg7
I0
sg8
I0
sg9
I0
sg10
I1935
sg11
S'1.0'
p977
sg13
S'src/../data/20thCenturyCorpus/581Douglas1935.txt'
p978
sg15
S'green light'
p979
sg17
S'Male'
p980
sg19
I21
sg20
S'European American'
p981
ssS'1133'
p982
(dp983
g4
I77
sg5
S'James Joyce'
p984
sg7
I0
sg8
I44
sg9
I10
sg10
I1941
sg11
S'3.0'
p985
sg13
S'src/../data/20thCenturyCorpus/1133Joyce1941.txt'
p986
sg15
S'finnegans wake'
p987
sg17
S'Male'
p988
sg19
I0
sg20
S'Irish'
p989
ssS'1132'
p990
(dp991
g4
I0
sg5
S'James Joyce'
p992
sg7
I0
sg8
I0
sg9
I63
sg10
I1915
sg11
S'1.0'
p993
sg13
S'src/../data/20thCenturyCorpus/1132Joyce1914.txt'
p994
sg15
S'dubliners'
p995
sg17
S'Male'
p996
sg19
I0
sg20
S'Irish'
p997
ssS'1131'
p998
(dp999
g4
I3
sg5
S'James Joyce'
p1000
sg7
I57
sg8
I14
sg9
I21
sg10
I1916
sg11
S'4.0'
p1001
sg13
S'src/../data/20thCenturyCorpus/1131Joyce1916.txt'
p1002
sg15
S'a portrait of the artist as a young man'
p1003
sg17
S'Male'
p1004
sg19
I0
sg20
S'Irish'
p1005
ssS'1134'
p1006
(dp1007
g4
I1
sg5
S'James Joyce'
p1008
sg7
I11
sg8
I6
sg9
I2
sg10
I1922
sg11
S'4.0'
p1009
sg13
S'src/../data/20thCenturyCorpus/1134Joyce1922.txt'
p1010
sg15
S'ulysses'
p1011
sg17
S'Male'
p1012
sg19
I0
sg20
S'Irish'
p1013
ssS'241'
p1014
(dp1015
g4
I97
sg5
S'Paul Bowles'
p1016
sg7
I92
sg8
I0
sg9
I83
sg10
I1949
sg11
S'3.0'
p1017
sg13
S'src/../data/20thCenturyCorpus/241Bowles1949.txt'
p1018
sg15
S'the sheltering sky'
p1019
sg17
S'Male'
p1020
sg19
I0
sg20
S'European American'
p1021
ssS'2061'
p1022
(dp1023
g4
I0
sg5
S'Mika Waltari'
p1024
sg7
I0
sg8
I0
sg9
I0
sg10
I1949
sg11
S'1.0'
p1025
sg13
S'src/../data/20thCenturyCorpus/2061Waltari1949.txt'
p1026
sg15
S'the egyptian'
p1027
sg17
S'Male'
p1028
sg19
I34
sg20
S'Finnish'
p1029
ssS'1432'
p1030
(dp1031
g4
I0
sg5
S'Cormac McCarthy'
p1032
sg7
I96
sg8
I0
sg9
I0
sg10
I1979
sg11
S'1.0'
p1033
sg13
S'src/../data/20thCenturyCorpus/1432McCarthy1979.txt'
p1034
sg15
S'suttree'
p1035
sg17
S'Male'
p1036
sg19
I0
sg20
S'European American'
p1037
ssS'1431'
p1038
(dp1039
g4
I0
sg5
S'Cormac McCarthy'
p1040
sg7
I54
sg8
I0
sg9
I48
sg10
I1965
sg11
S'2.0'
p1041
sg13
S'src/../data/20thCenturyCorpus/1431McCarthy1985.txt'
p1042
sg15
S'blood meridian'
p1043
sg17
S'Male'
p1044
sg19
I0
sg20
S'European American'
p1045
ssS'511'
p1046
(dp1047
g4
I0
sg5
S'Samuel R. Delany'
p1048
sg7
I0
sg8
I0
sg9
I33
sg10
I1975
sg11
S'1.0'
p1049
sg13
S'src/../data/20thCenturyCorpus/511Delany1975.txt'
p1050
sg15
S'dhalgren'
p1051
sg17
S'Male'
p1052
sg19
I0
sg20
S'British'
p1053
ssS'512'
p1054
(dp1055
g4
I0
sg5
S'Samuel R. Delany'
p1056
sg7
I0
sg8
I0
sg9
I100
sg10
I1996
sg11
S'1.0'
p1057
sg13
S'src/../data/20thCenturyCorpus/512Delany1995.txt'
p1058
sg15
S'hogg'
p1059
sg17
S'Male'
p1060
sg19
I0
sg20
S'African American'
p1061
ssS'412'
p1062
(dp1063
g4
I0
sg5
S'Tom Clancy'
p1064
sg7
I0
sg8
I0
sg9
I0
sg10
I1988
sg11
S'1.0'
p1065
sg13
S'src/../data/20thCenturyCorpus/412Clancy1988.txt'
p1066
sg15
S'the cardinal of the kremlin'
p1067
sg17
S'Male'
p1068
sg19
I71
sg20
S'European American'
p1069
ssS'1001'
p1070
(dp1071
g4
I0
sg5
S'Khaled Hosseini**'
p1072
sg7
I0
sg8
I0
sg9
I0
sg10
I2007
sg11
S'1.0'
p1073
sg13
S'src/../data/20thCenturyCorpus/1001Hosseini2007.txt'
p1074
sg15
S'a thousand splendid suns'
p1075
sg17
S'Male'
p1076
sg19
I89
sg20
S'Afghan American'
p1077
ssS'621'
p1078
(dp1079
g4
I0
sg5
S'Rikki Ducornet'
p1080
sg7
I0
sg8
I0
sg9
I35
sg10
I1984
sg11
S'1.0'
p1081
sg13
S'src/../data/20thCenturyCorpus/621Ducornet1984.txt'
p1082
sg15
S'the stain'
p1083
sg17
S'Female'
p1084
sg19
I0
sg20
S'European American'
p1085
ssS'1221'
p1086
(dp1087
g4
I78
sg5
S'Rudyard Kipling'
p1088
sg7
I0
sg8
I95
sg9
I0
sg10
I1901
sg11
S'2.0'
p1089
sg13
S'src/../data/20thCenturyCorpus/1221Kipling1901.txt'
p1090
sg15
S'kim'
p1091
sg17
S'Male'
p1092
sg19
I0
sg20
S'British'
p1093
ssS'1341'
p1094
(dp1095
g4
I0
sg5
S'Richard Llewellyn'
p1096
sg7
I0
sg8
I0
sg9
I0
sg10
I1940
sg11
S'1.0'
p1097
sg13
S'src/../data/20thCenturyCorpus/1341Llewellyn1939.txt'
p1098
sg15
S'how green was my valley'
p1099
sg17
S'Male'
p1100
sg19
I25
sg20
S'British'
p1101
ssS'452'
p1102
(dp1103
g4
I0
sg5
S'Robert Coover'
p1104
sg7
I0
sg8
I0
sg9
I4
sg10
I1977
sg11
S'1.0'
p1105
sg13
S'src/../data/20thCenturyCorpus/452Coover1977.txt'
p1106
sg15
S'the public burning'
p1107
sg17
S'Male'
p1108
sg19
I0
sg20
S'European American'
p1109
ssS'453'
p1110
(dp1111
g4
I0
sg5
S'Robert Coover'
p1112
sg7
I0
sg8
I0
sg9
I90
sg10
I1968
sg11
S'1.0'
p1113
sg13
S'src/../data/20thCenturyCorpus/453Coover1968.txt'
p1114
sg15
S'the universal baseball association, inc., j. henry waugh, prop.'
p1115
sg17
S'Male'
p1116
sg19
I0
sg20
S'European American'
p1117
ssS'1872'
p1118
(dp1119
g4
I0
sg5
S'Gertrude Stein'
p1120
sg7
I0
sg8
I0
sg9
I7
sg10
I1925
sg11
S'1.0'
p1121
sg13
S'src/../data/20thCenturyCorpus/1872Stein1925.txt'
p1122
sg15
S'the making of americans'
p1123
sg17
S'Female'
p1124
sg19
I0
sg20
S'European American'
p1125
ssS'1871'
p1126
(dp1127
g4
I0
sg5
S'Gertrude Stein'
p1128
sg7
I0
sg8
I78
sg9
I0
sg10
I1933
sg11
S'1.0'
p1129
sg13
S'src/../data/20thCenturyCorpus/1871Stein1933.txt'
p1130
sg15
S'the autobiography of alice b. tokias'
p1131
sg17
S'Female'
p1132
sg19
I0
sg20
S'European American'
p1133
ssS'171'
p1134
(dp1135
g4
I0
sg5
S'Donald Barthelme'
p1136
sg7
I0
sg8
I0
sg9
I25
sg10
I1981
sg11
S'1.0'
p1137
sg13
S'src/../data/20thCenturyCorpus/171Barthelme1981.txt'
p1138
sg15
S'60 stories'
p1139
sg17
S'Male'
p1140
sg19
I0
sg20
S'European American'
p1141
ssS'2051'
p1142
(dp1143
g4
I0
sg5
S'Robert James Waller'
p1144
sg7
I0
sg8
I0
sg9
I0
sg10
I1993
sg11
S'1.0'
p1145
sg13
S'src/../data/20thCenturyCorpus/2051Waller1992.txt'
p1146
sg15
S'the bridges of madison county'
p1147
sg17
S'Male'
p1148
sg19
I76
sg20
S'European American'
p1149
ssS'971'
p1150
(dp1151
g4
I0
sg5
S'Frank Herbert'
p1152
sg7
I14
sg8
I0
sg9
I0
sg10
I1965
sg11
S'1.0'
p1153
sg13
S'src/../data/20thCenturyCorpus/971Herbert1965.txt'
p1154
sg15
S'dune'
p1155
sg17
S'Male'
p1156
sg19
I0
sg20
S'European American'
p1157
ssS'181'
p1158
(dp1159
g4
I0
sg5
S'L. Frank Baum'
p1160
sg7
I0
sg8
I47
sg9
I0
sg10
I1900
sg11
S'1.0'
p1161
sg13
S'src/../data/20thCenturyCorpus/181Baum1900.txt'
p1162
sg15
S'the wonderful wizard of oz'
p1163
sg17
S'Male'
p1164
sg19
I0
sg20
S'European American'
p1165
ssS'651'
p1166
(dp1167
g4
I0
sg5
S'E.R. Eddison'
p1168
sg7
I32
sg8
I0
sg9
I0
sg10
I1922
sg11
S'1.0'
p1169
sg13
S'src/../data/20thCenturyCorpus/651Eddison1922.txt'
p1170
sg15
S'the worm ouroboros'
p1171
sg17
S'Male'
p1172
sg19
I0
sg20
S'British'
p1173
ssS'2111'
p1174
(dp1175
g4
I0
sg5
S'Morris L. West'
p1176
sg7
I0
sg8
I0
sg9
I0
sg10
I1963
sg11
S'1.0'
p1177
sg13
S'src/../data/20thCenturyCorpus/2111West1963.txt'
p1178
sg15
S'the shoes of the fisherman'
p1179
sg17
S'Male'
p1180
sg19
I47
sg20
S'Austrailian'
p1181
ssS'1911'
p1182
(dp1183
g4
I96
sg5
S'William Styron'
p1184
sg7
I0
sg8
I57
sg9
I0
sg10
I1979
sg11
S'2.0'
p1185
sg13
S'src/../data/20thCenturyCorpus/1911Styron1979.txt'
p1186
sg15
S"sophie's choice"
p1187
sg17
S'Male'
p1188
sg19
I0
sg20
S'European American'
p1189
ssS'11'
p1190
(dp1191
g4
I0
sg5
S'Chinua Achebe'
p1192
sg7
I0
sg8
I70
sg9
I0
sg10
I1958
sg11
S'1.0'
p1193
sg13
S'src/../data/20thCenturyCorpus/11Achebe1958.txt'
p1194
sg15
S'things fall apart'
p1195
sg17
S'Male'
p1196
sg19
I0
sg20
S'Nigerian'
p1197
ssS'15'
p1198
(dp1199
g4
I22
sg5
S"John O'Hara"
p1200
sg7
I0
sg8
I0
sg9
I0
sg10
I1934
sg11
S'1.0'
p1201
sg13
S'src/../data/20thCenturyCorpus/15Ohenry1934.txt'
p1202
sg15
S'appointment in samarra'
p1203
sg17
S'Male'
p1204
sg19
I0
sg20
S'European American'
p1205
ssS'16'
p1206
(dp1207
g4
I0
sg5
S"Flannery O'Connor"
p1208
sg7
I38
sg8
I0
sg9
I56
sg10
I1952
sg11
S'2.0'
p1209
sg13
S'src/../data/20thCenturyCorpus/16Oconner1952.txt'
p1210
sg15
S'wise blood'
p1211
sg17
S'Female'
p1212
sg19
I0
sg20
S'European American'
p1213
ssS'861'
p1214
(dp1215
g4
I89
sg5
S'Henry Green'
p1216
sg7
I0
sg8
I0
sg9
I0
sg10
I1945
sg11
S'1.0'
p1217
sg13
S'src/../data/20thCenturyCorpus/861Yorke1945.txt'
p1218
sg15
S'loving'
p1219
sg17
S'Male'
p1220
sg19
I0
sg20
S'British'
p1221
ssS'2082'
p1222
(dp1223
g4
I80
sg5
S'Evelyn Waugh'
p1224
sg7
I88
sg8
I74
sg9
I0
sg10
I1945
sg11
S'3.0'
p1225
sg13
S'src/../data/20thCenturyCorpus/2082Waugh1945.txt'
p1226
sg15
S'brideshead revisited'
p1227
sg17
S'Male'
p1228
sg19
I0
sg20
S'British'
p1229
ssS'2021'
p1230
(dp1231
g4
I0
sg5
S'Kurt Vonnegut'
p1232
sg7
I0
sg8
I66
sg9
I0
sg10
I1963
sg11
S'1.0'
p1233
sg13
S'src/../data/20thCenturyCorpus/2021Vonnegut1963.txt'
p1234
sg15
S"cat's cradle"
p1235
sg17
S'Male'
p1236
sg19
I0
sg20
S'European American'
p1237
ssS'2022'
p1238
(dp1239
g4
I18
sg5
S'Kurt Vonnegut'
p1240
sg7
I23
sg8
I29
sg9
I54
sg10
I1969
sg11
S'2.0'
p1241
sg13
S'src/../data/20thCenturyCorpus/2022Vonnegut1969.txt'
p1242
sg15
S'slaughterhouse-five'
p1243
sg17
S'Male'
p1244
sg19
I0
sg20
S'European American'
p1245
ssS'2083'
p1246
(dp1247
g4
I75
sg5
S'Evelyn Waugh'
p1248
sg7
I0
sg8
I0
sg9
I0
sg10
I1938
sg11
S'1.0'
p1249
sg13
S'src/../data/20thCenturyCorpus/2083Waugh1938.txt'
p1250
sg15
S'scoop'
p1251
sg17
S'Male'
p1252
sg19
I0
sg20
S'British'
p1253
ssS'882'
p1254
(dp1255
g4
I0
sg5
S'Zane Grey'
p1256
sg7
I0
sg8
I0
sg9
I0
sg10
I1918
sg11
S'1.0'
p1257
sg13
S'src/../data/20thCenturyCorpus/882Grey1918.txt'
p1258
sg15
S'the u. p. trail'
p1259
sg17
S'Male'
p1260
sg19
I6
sg20
S'European American'
p1261
ssS'881'
p1262
(dp1263
g4
I0
sg5
S'Zane Grey'
p1264
sg7
I0
sg8
I0
sg9
I0
sg10
I1920
sg11
S'1.0'
p1265
sg13
S'src/../data/20thCenturyCorpus/881Grey1920.txt'
p1266
sg15
S'the man of the forest'
p1267
sg17
S'Male'
p1268
sg19
I8
sg20
S'European American'
p1269
ssS'2081'
p1270
(dp1271
g4
I34
sg5
S'Evelyn Waugh'
p1272
sg7
I0
sg8
I0
sg9
I0
sg10
I1934
sg11
S'1.0'
p1273
sg13
S'src/../data/20thCenturyCorpus/2081Waugh1934.txt'
p1274
sg15
S'a handful of dust'
p1275
sg17
S'Male'
p1276
sg19
I0
sg20
S'British'
p1277
ssS'1961'
p1278
(dp1279
g4
I0
sg5
S'Morton Thompson'
p1280
sg7
I0
sg8
I0
sg9
I0
sg10
I1954
sg11
S'1.0'
p1281
sg13
S'src/../data/20thCenturyCorpus/1961Thompson1954.txt'
p1282
sg15
S'not as a stranger'
p1283
sg17
S'Male'
p1284
sg19
I38
sg20
S'European American'
p1285
ssS'1611'
p1286
(dp1287
g4
I60
sg5
S'Walker Percy'
p1288
sg7
I49
sg8
I0
sg9
I0
sg10
I1961
sg11
S'2.0'
p1289
sg13
S'src/../data/20thCenturyCorpus/1611Percy1961.txt'
p1290
sg15
S'the moviegoer'
p1291
sg17
S'Male'
p1292
sg19
I0
sg20
S'European American'
p1293
ssS'321'
p1294
(dp1295
g4
I98
sg5
S'James M. Cain'
p1296
sg7
I0
sg8
I0
sg9
I0
sg10
I1934
sg11
S'1.0'
p1297
sg13
S'src/../data/20thCenturyCorpus/321Cain1934.txt'
p1298
sg15
S'the postman always rings twice'
p1299
sg17
S'Male'
p1300
sg19
I0
sg20
S'European American'
p1301
ssS'201'
p1302
(dp1303
g4
I59
sg5
S'Max Beerbohm'
p1304
sg7
I0
sg8
I0
sg9
I0
sg10
I1911
sg11
S'1.0'
p1305
sg13
S'src/../data/20thCenturyCorpus/201Beerbohm1911.txt'
p1306
sg15
S'zuleika dobson'
p1307
sg17
S'Male'
p1308
sg19
I0
sg20
S'British'
p1309
ssS'774'
p1310
(dp1311
g4
I0
sg5
S'E.M. Forster'
p1312
sg7
I0
sg8
I98
sg9
I0
sg10
I1905
sg11
S'1.0'
p1313
sg13
S'src/../data/20thCenturyCorpus/774Forster1905.txt'
p1314
sg15
S'where angels fear to tread'
p1315
sg17
S'Male'
p1316
sg19
I0
sg20
S'British'
p1317
ssS'771'
p1318
(dp1319
g4
I25
sg5
S'E.M. Forster'
p1320
sg7
I0
sg8
I59
sg9
I45
sg10
I1924
sg11
S'3.0'
p1321
sg13
S'src/../data/20thCenturyCorpus/771Forster1924.txt'
p1322
sg15
S'a passage to india'
p1323
sg17
S'Male'
p1324
sg19
I0
sg20
S'British'
p1325
ssS'773'
p1326
(dp1327
g4
I38
sg5
S'E.M. Forster'
p1328
sg7
I0
sg8
I52
sg9
I0
sg10
I1910
sg11
S'2.0'
p1329
sg13
S'src/../data/20thCenturyCorpus/773Forster1910.txt'
p1330
sg15
S'howards end'
p1331
sg17
S'Male'
p1332
sg19
I0
sg20
S'British'
p1333
ssS'772'
p1334
(dp1335
g4
I79
sg5
S'E.M. Forster'
p1336
sg7
I0
sg8
I39
sg9
I0
sg10
I1908
sg11
S'2.0'
p1337
sg13
S'src/../data/20thCenturyCorpus/772Forster1908.txt'
p1338
sg15
S'a room with a view'
p1339
sg17
S'Male'
p1340
sg19
I0
sg20
S'British'
p1341
ssS'71'
p1342
(dp1343
g4
I24
sg5
S'Sherwood Anderson'
p1344
sg7
I0
sg8
I0
sg9
I87
sg10
I1919
sg11
S'2.0'
p1345
sg13
S'src/../data/20thCenturyCorpus/71Anderson1919.txt'
p1346
sg15
S'winesburg, ohio'
p1347
sg17
S'Male'
p1348
sg19
I0
sg20
S'European American'
p1349
ssS'1501'
p1350
(dp1351
g4
I0
sg5
S'Margaret Mitchell'
p1352
sg7
I24
sg8
I26
sg9
I0
sg10
I1936
sg11
S'3.0'
p1353
sg13
S'src/../data/20thCenturyCorpus/1501Mitchell1936.txt'
p1354
sg15
S'gone with the wind'
p1355
sg17
S'Female'
p1356
sg19
I22
sg20
S'European American'
p1357
ssS'1041'
p1358
(dp1359
g4
I0
sg5
S'A.S.M. Hutchinson'
p1360
sg7
I0
sg8
I0
sg9
I0
sg10
I1922
sg11
S'1.0'
p1361
sg13
S'src/../data/20thCenturyCorpus/1041Hutchinson1921.txt'
p1362
sg15
S'if winter comes'
p1363
sg17
S'Male'
p1364
sg19
I10
sg20
S'British'
p1365
ssS'2231'
p1366
(dp1367
g4
I0
sg5
S'Harold Bell Wright'
p1368
sg7
I0
sg8
I0
sg9
I0
sg10
I1914
sg11
S'1.0'
p1369
sg13
S'src/../data/20thCenturyCorpus/2231Wright1914.txt'
p1370
sg15
S'the eyes of the world'
p1371
sg17
S'Male'
p1372
sg19
I2
sg20
S'European American'
p1373
ssS'1681'
p1374
(dp1375
g4
I0
sg5
S'Ishmael Reed'
p1376
sg7
I0
sg8
I0
sg9
I86
sg10
I1969
sg11
S'1.0'
p1377
sg13
S'src/../data/20thCenturyCorpus/1681Reed1969.txt'
p1378
sg15
S'yellow back radio broke-down'
p1379
sg17
S'Male'
p1380
sg19
I0
sg20
S'African American'
p1381
ssS'1762'
p1382
(dp1383
g4
I0
sg5
S'Salman Rushdie'
p1384
sg7
I100
sg8
I55
sg9
I0
sg10
I1988
sg11
S'2.0'
p1385
sg13
S'src/../data/20thCenturyCorpus/1762Rushdie1988.txt'
p1386
sg15
S'the satanic verses'
p1387
sg17
S'Male'
p1388
sg19
I0
sg20
S'British Indian'
p1389
ssS'1761'
p1390
(dp1391
g4
I90
sg5
S'Salman Rushdie'
p1392
sg7
I0
sg8
I100
sg9
I41
sg10
I1981
sg11
S'3.0'
p1393
sg13
S'src/../data/20thCenturyCorpus/1761Rushdie1981.txt'
p1394
sg15
S"midnight's children"
p1395
sg17
S'Male'
p1396
sg19
I0
sg20
S'British Indian'
p1397
ssS'1141'
p1398
(dp1399
g4
I0
sg5
S'James Kahn'
p1400
sg7
I0
sg8
I0
sg9
I0
sg10
I1983
sg11
S'1.0'
p1401
sg13
S'src/../data/20thCenturyCorpus/1141kahn1983.txt'
p1402
sg15
S'return of the jedi'
p1403
sg17
S'Male'
p1404
sg19
I66
sg20
S'European American'
p1405
ssS'1261'
p1406
(dp1407
g4
I0
sg5
S'Jerry B. Jenkins and Tim LaHaye'
p1408
sg7
I0
sg8
I0
sg9
I0
sg10
I2001
sg11
S'1.0'
p1409
sg13
S'src/../data/20thCenturyCorpus/1261LaHaye2001.txt'
p1410
sg15
S'desecration'
p1411
sg17
S'Male'
p1412
sg19
I84
sg20
S'European American'
p1413
ssS'661'
p1414
(dp1415
g4
I0
sg5
S'Stanley Elkin'
p1416
sg7
I0
sg8
I0
sg9
I68
sg10
I1976
sg11
S'1.0'
p1417
sg13
S'src/../data/20thCenturyCorpus/661Elkin1976.txt'
p1418
sg15
S'the franchiser'
p1419
sg17
S'Male'
p1420
sg19
I0
sg20
S'European American'
p1421
ssS'2091'
p1422
(dp1423
g4
I0
sg5
S'H. G. Wells'
p1424
sg7
I0
sg8
I0
sg9
I0
sg10
I1917
sg11
S'1.0'
p1425
sg13
S'src/../data/20thCenturyCorpus/2091Wells1916.txt'
p1426
sg15
S'mr. britling sees it through'
p1427
sg17
S'Male'
p1428
sg19
I5
sg20
S'British'
p1429
ssS'2092'
p1430
(dp1431
g4
I0
sg5
S'H.G. Wells'
p1432
sg7
I0
sg8
I85
sg9
I0
sg10
I1898
sg11
S'1.0'
p1433
sg13
S'src/../data/20thCenturyCorpus/2092Wells1898.txt'
p1434
sg15
S'the war of the worlds'
p1435
sg17
S'Male'
p1436
sg19
I0
sg20
S'British'
p1437
ssS'691'
p1438
(dp1439
g4
I0
sg5
S'Steve Erickson'
p1440
sg7
I0
sg8
I0
sg9
I98
sg10
I1989
sg11
S'1.0'
p1441
sg13
S'src/../data/20thCenturyCorpus/691Erickson1989.txt'
p1442
sg15
S'tours of the black clock'
p1443
sg17
S'Male'
p1444
sg19
I0
sg20
S'European American'
p1445
ssS'1542'
p1446
(dp1447
g4
I53
sg5
S'Vladimir Nabokov'
p1448
sg7
I0
sg8
I0
sg9
I1
sg10
I1962
sg11
S'2.0'
p1449
sg13
S'src/../data/20thCenturyCorpus/1542Nabokov1962.txt'
p1450
sg15
S'pale fire'
p1451
sg17
S'Male'
p1452
sg19
I0
sg20
S'European American'
p1453
ssS'1541'
p1454
(dp1455
g4
I4
sg5
S'Vladimir Nabokov'
p1456
sg7
I34
sg8
I11
sg9
I9
sg10
I1955
sg11
S'4.0'
p1457
sg13
S'src/../data/20thCenturyCorpus/1541Nabokov1955.txt'
p1458
sg15
S'lolita'
p1459
sg17
S'Male'
p1460
sg19
I0
sg20
S'European American'
p1461
ssS'541'
p1462
(dp1463
g4
I42
sg5
S'James Dickey'
p1464
sg7
I0
sg8
I0
sg9
I0
sg10
I1970
sg11
S'1.0'
p1465
sg13
S'src/../data/20thCenturyCorpus/541Dickey1970.txt'
p1466
sg15
S'deliverance'
p1467
sg17
S'Male'
p1468
sg19
I0
sg20
S'European American'
p1469
ssS'1461'
p1470
(dp1471
g4
I0
sg5
S'Paul Metcalf'
p1472
sg7
I0
sg8
I0
sg9
I43
sg10
I1965
sg11
S'1.0'
p1473
sg13
S'src/../data/20thCenturyCorpus/1461Metcalf1965.txt'
p1474
sg15
S'genoa'
p1475
sg17
S'Male'
p1476
sg19
I0
sg20
S'European American'
p1477
ssS'2241'
p1478
(dp1479
g4
I20
sg5
S'Richard Wright'
p1480
sg7
I0
sg8
I27
sg9
I50
sg10
I1940
sg11
S'3.0'
p1481
sg13
S'src/../data/20thCenturyCorpus/2241Wright1940.txt'
p1482
sg15
S'native son'
p1483
sg17
S'Male'
p1484
sg19
I0
sg20
S'African American'
p1485
ssS'991'
p1486
(dp1487
g4
I0
sg5
S'Robert Holdstock'
p1488
sg7
I97
sg8
I0
sg9
I0
sg10
I1984
sg11
S'1.0'
p1489
sg13
S'src/../data/20thCenturyCorpus/991Holdstock1984.txt'
p1490
sg15
S'mythago wood'
p1491
sg17
S'Male'
p1492
sg19
I0
sg20
S'British'
p1493
ssS'1311'
p1494
(dp1495
g4
I0
sg5
S'Harper Lee'
p1496
sg7
I5
sg8
I4
sg9
I0
sg10
I1960
sg11
S'2.0'
p1497
sg13
S'src/../data/20thCenturyCorpus/1311Lee1960.txt'
p1498
sg15
S'to kill a mockingbird'
p1499
sg17
S'Female'
p1500
sg19
I0
sg20
S'European American'
p1501
ssS'121'
p1502
(dp1503
g4
I0
sg5
S'Richard Bach'
p1504
sg7
I98
sg8
I0
sg9
I0
sg10
I1977
sg11
S'1.0'
p1505
sg13
S'src/../data/20thCenturyCorpus/121Bach1977.txt'
p1506
sg15
S'illusions'
p1507
sg17
S'Male'
p1508
sg19
I0
sg20
S'European American'
p1509
ssS'122'
p1510
(dp1511
g4
I0
sg5
S'Richard Bach*'
p1512
sg7
I0
sg8
I0
sg9
I0
sg10
I1973
sg11
S'1.0'
p1513
sg13
S'src/../data/20thCenturyCorpus/122Bach1970.txt'
p1514
sg15
S'johnathan livingston seagull'
p1515
sg17
S'Male'
p1516
sg19
I56
sg20
S'European American'
p1517
ssS'1821'
p1518
(dp1519
g4
I0
sg5
S'Lillian Smith'
p1520
sg7
I0
sg8
I0
sg9
I0
sg10
I1944
sg11
S'1.0'
p1521
sg13
S'src/../data/20thCenturyCorpus/1821Smith1944.txt'
p1522
sg15
S'strange fruit'
p1523
sg17
S'Female'
p1524
sg19
I29
sg20
S'European American'
p1525
ssS'411'
p1526
(dp1527
g4
I0
sg5
S'Tom Clancy'
p1528
sg7
I0
sg8
I0
sg9
I0
sg10
I1989
sg11
S'1.0'
p1529
sg13
S'src/../data/20thCenturyCorpus/411Clancy1989.txt'
p1530
sg15
S'clear and present danger'
p1531
sg17
S'Male'
p1532
sg19
I72
sg20
S'European American'
p1533
ssS'2141'
p1534
(dp1535
g4
I0
sg5
S'E.B. White'
p1536
sg7
I0
sg8
I13
sg9
I0
sg10
I1952
sg11
S'1.0'
p1537
sg13
S'src/../data/20thCenturyCorpus/2141White1952.txt'
p1538
sg15
S"charlotte's web"
p1539
sg17
S'Male'
p1540
sg19
I0
sg20
S'European American'
p1541
ssS'413'
p1542
(dp1543
g4
I0
sg5
S'Tom Clancy'
p1544
sg7
I81
sg8
I0
sg9
I0
sg10
I1990
sg11
S'1.0'
p1545
sg13
S'src/../data/20thCenturyCorpus/413Clancy1984.txt'
p1546
sg15
S'the hunt for red october'
p1547
sg17
S'Male'
p1548
sg19
I0
sg20
S'European American'
p1549
ssS'921'
p1550
(dp1551
g4
I0
sg5
S'Dashiell Hammett'
p1552
sg7
I0
sg8
I0
sg9
I61
sg10
I1929
sg11
S'1.0'
p1553
sg13
S'src/../data/20thCenturyCorpus/921Hammett1929.txt'
p1554
sg15
S'red harvest'
p1555
sg17
S'Male'
p1556
sg19
I0
sg20
S'European American'
p1557
ssS'922'
p1558
(dp1559
g4
I56
sg5
S'Dashiell Hammett'
p1560
sg7
I0
sg8
I79
sg9
I0
sg10
I1930
sg11
S'2.0'
p1561
sg13
S'src/../data/20thCenturyCorpus/922Hammett1930.txt'
p1562
sg15
S'the maltese falcon'
p1563
sg17
S'Male'
p1564
sg19
I0
sg20
S'European American'
p1565
ssS'1013'
p1566
(dp1567
g4
I0
sg5
S'L. Ron Hubbard'
p1568
sg7
I9
sg8
I0
sg9
I0
sg10
I1986
sg11
S'1.0'
p1569
sg13
S'src/../data/20thCenturyCorpus/1013Hubbard1986.txt'
p1570
sg15
S'mission earth'
p1571
sg17
S'Male'
p1572
sg19
I0
sg20
S'European American'
p1573
ssS'1381'
p1574
(dp1575
g4
I0
sg5
S'Robert Ludlum'
p1576
sg7
I0
sg8
I0
sg9
I0
sg10
I1979
sg11
S'1.0'
p1577
sg13
S'src/../data/20thCenturyCorpus/1381Ludlum1979.txt'
p1578
sg15
S'the matarese circle'
p1579
sg17
S'Male'
p1580
sg19
I62
sg20
S'European American'
p1581
ssS'311'
p1582
(dp1583
g4
I12
sg5
S'Samuel Butler'
p1584
sg7
I0
sg8
I0
sg9
I0
sg10
I1903
sg11
S'1.0'
p1585
sg13
S'src/../data/20thCenturyCorpus/311Butler1903.txt'
p1586
sg15
S'the way of all flesh'
p1587
sg17
S'Male'
p1588
sg19
I0
sg20
S'British'
p1589
ssS'1921'
p1590
(dp1591
g4
I0
sg5
S'Ronald Sukenick'
p1592
sg7
I0
sg8
I0
sg9
I85
sg10
I1968
sg11
S'1.0'
p1593
sg13
S'src/../data/20thCenturyCorpus/1921Sukenick1968.txt'
p1594
sg15
S'up'
p1595
sg17
S'Male'
p1596
sg19
I0
sg20
S'European Canadian'
p1597
ssS'831'
p1598
(dp1599
g4
I41
sg5
S'William Golding'
p1600
sg7
I25
sg8
I8
sg9
I0
sg10
I1954
sg11
S'3.0'
p1601
sg13
S'src/../data/20thCenturyCorpus/831Golding1954.txt'
p1602
sg15
S'the lord of the flies'
p1603
sg17
S'Male'
p1604
sg19
I0
sg20
S'British'
p1605
ssS'1334'
p1606
(dp1607
g4
I68
sg5
S'Sinclair Lewis'
p1608
sg7
I0
sg8
I99
sg9
I0
sg10
I1921
sg11
S'3.0'
p1609
sg13
S'src/../data/20thCenturyCorpus/1334Lewis1920.txt'
p1610
sg15
S'main street'
p1611
sg17
S'Male'
p1612
sg19
I9
sg20
S'European American'
p1613
ssS'361'
p1614
(dp1615
g4
I0
sg5
S'Raymond Carver'
p1616
sg7
I0
sg8
I0
sg9
I62
sg10
I1981
sg11
S'1.0'
p1617
sg13
S'src/../data/20thCenturyCorpus/361Carver1981.txt'
p1618
sg15
S'what we talk about when we talk about love'
p1619
sg17
S'Male'
p1620
sg19
I0
sg20
S'European American'
p1621
ssS'381'
p1622
(dp1623
g4
I63
sg5
S'John Cheever'
p1624
sg7
I0
sg8
I0
sg9
I0
sg10
I1957
sg11
S'1.0'
p1625
sg13
S'src/../data/20thCenturyCorpus/381Cheever1957.txt'
p1626
sg15
S'the wapshot chronicles'
p1627
sg17
S'Male'
p1628
sg19
I0
sg20
S'European American'
p1629
ssS'1332'
p1630
(dp1631
g4
I0
sg5
S'Sinclair Lewis'
p1632
sg7
I0
sg8
I94
sg9
I0
sg10
I1922
sg11
S'1.0'
p1633
sg13
S'src/../data/20thCenturyCorpus/1332Lewis1922.txt'
p1634
sg15
S'babbitt'
p1635
sg17
S'Male'
p1636
sg19
I0
sg20
S'European American'
p1637
ssS'1641'
p1638
(dp1639
g4
I43
sg5
S'Anthony Powell'
p1640
sg7
I0
sg8
I0
sg9
I0
sg10
I1951
sg11
S'1.0'
p1641
sg13
S'src/../data/20thCenturyCorpus/1641Powell1951.txt'
p1642
sg15
S'a question of upbringing'
p1643
sg17
S'Male'
p1644
sg19
I0
sg20
S'British'
p1645
ssS'781'
p1646
(dp1647
g4
I0
sg5
S'John Fowles'
p1648
sg7
I30
sg8
I93
sg9
I77
sg10
I1969
sg11
S'3.0'
p1649
sg13
S'src/../data/20thCenturyCorpus/781Fowles1969.txt'
p1650
sg15
S"the french lieutenant's woman"
p1651
sg17
S'Male'
p1652
sg19
I0
sg20
S'British'
p1653
ssS'782'
p1654
(dp1655
g4
I93
sg5
S'John Fowles'
p1656
sg7
I71
sg8
I0
sg9
I0
sg10
I1966
sg11
S'2.0'
p1657
sg13
S'src/../data/20thCenturyCorpus/782Fowles1966.txt'
p1658
sg15
S'the magus'
p1659
sg17
S'Male'
p1660
sg19
I0
sg20
S'British'
p1661
ssS'1721'
p1662
(dp1663
g4
I0
sg5
S'Tom Robbins'
p1664
sg7
I0
sg8
I0
sg9
I70
sg10
I1987
sg11
S'1.0'
p1665
sg13
S'src/../data/20thCenturyCorpus/1721Robbins1990.txt'
p1666
sg15
S'skinny legs and all'
p1667
sg17
S'Male'
p1668
sg19
I0
sg20
S'European American'
p1669
ssS'571'
p1670
(dp1671
g4
I23
sg5
S'John Dos Passos'
p1672
sg7
I0
sg8
I0
sg9
I0
sg10
I1930
sg11
S'1.0'
p1673
sg13
S'src/../data/20thCenturyCorpus/571Dos Passos1930.txt'
p1674
sg15
S'the 42nd parallel'
p1675
sg17
S'Male'
p1676
sg19
I0
sg20
S'European American'
p1677
ssS'2191'
p1678
(dp1679
g4
I0
sg5
S'Thomas Wolfe'
p1680
sg7
I0
sg8
I76
sg9
I95
sg10
I1928
sg11
S'2.0'
p1681
sg13
S'src/../data/20thCenturyCorpus/2191Wolfe1928.txt'
p1682
sg15
S'look homeward, angel'
p1683
sg17
S'Male'
p1684
sg19
I0
sg20
S'European American'
p1685
ssS'252'
p1686
(dp1687
g4
I0
sg5
S'Ray Bradbury'
p1688
sg7
I65
sg8
I0
sg9
I0
sg10
I1962
sg11
S'1.0'
p1689
sg13
S'src/../data/20thCenturyCorpus/252Bradbury1962.txt'
p1690
sg15
S'something wicked this way comes'
p1691
sg17
S'Male'
p1692
sg19
I0
sg20
S'European American'
p1693
ssS'251'
p1694
(dp1695
g4
I0
sg5
S'Ray Bradbury'
p1696
sg7
I77
sg8
I0
sg9
I0
sg10
I1953
sg11
S'1.0'
p1697
sg13
S'src/../data/20thCenturyCorpus/251Bradbury1953.txt'
p1698
sg15
S'farenheit 451'
p1699
sg17
S'Male'
p1700
sg19
I0
sg20
S'European American'
p1701
ssS'1421'
p1702
(dp1703
g4
I66
sg5
S'W. Somerset Maugham'
p1704
sg7
I37
sg8
I0
sg9
I0
sg10
I1915
sg11
S'2.0'
p1705
sg13
S'src/../data/20thCenturyCorpus/1421Maugham1915.txt'
p1706
sg15
S'of human bondage'
p1707
sg17
S'Male'
p1708
sg19
I0
sg20
S'British'
p1709
ssS'2201'
p1710
(dp1711
g4
I0
sg5
S'Thomas Wolfe'
p1712
sg7
I0
sg8
I65
sg9
I0
sg10
I1987
sg11
S'1.0'
p1713
sg13
S'src/../data/20thCenturyCorpus/2201Wolfe1987.txt'
p1714
sg15
S'bonfire of the vanities'
p1715
sg17
S'Male'
p1716
sg19
I0
sg20
S'European American'
p1717
ssS'156'
p1718
(dp1719
g4
I0
sg5
S"Flann O'Brien"
p1720
sg7
I76
sg8
I0
sg9
I47
sg10
I1951
sg11
S'2.0'
p1721
sg13
S'src/../data/20thCenturyCorpus/156OBrien1951.txt'
p1722
sg15
S'at swim-two-birds'
p1723
sg17
S'Male'
p1724
sg19
I0
sg20
S'Irish'
p1725
ssS'731'
p1726
(dp1727
g4
I0
sg5
S'Raymond Federman'
p1728
sg7
I0
sg8
I0
sg9
I46
sg10
I1972
sg11
S'1.0'
p1729
sg13
S'src/../data/20thCenturyCorpus/731Federman1972.txt'
p1730
sg15
S'double or nothing'
p1731
sg17
S'Male'
p1732
sg19
I0
sg20
S'European American'
p1733
ssS'732'
p1734
(dp1735
g4
I0
sg5
S'Raymond Federman'
p1736
sg7
I0
sg8
I0
sg9
I11
sg10
I1975
sg11
S'1.0'
p1737
sg13
S'src/../data/20thCenturyCorpus/732Federman1975.txt'
p1738
sg15
S'take it or leave it'
p1739
sg17
S'Male'
p1740
sg19
I0
sg20
S'European American'
p1741
ssS'508'
p1742
(dp1743
g4
I0
sg5
S'Charles de Lint'
p1744
sg7
I44
sg8
I0
sg9
I0
sg10
I1989
sg11
S'1.0'
p1745
sg13
S'src/../data/20thCenturyCorpus/508Lint1989.txt'
p1746
sg15
S'yarrow'
p1747
sg17
S'Male'
p1748
sg19
I0
sg20
S'European Canadian'
p1749
ssS'506'
p1750
(dp1751
g4
I0
sg5
S'Charles de Lint'
p1752
sg7
I60
sg8
I0
sg9
I0
sg10
I1991
sg11
S'1.0'
p1753
sg13
S'src/../data/20thCenturyCorpus/506Lint1991.txt'
p1754
sg15
S'the little country'
p1755
sg17
S'Male'
p1756
sg19
I0
sg20
S'European Canadian'
p1757
ssS'507'
p1758
(dp1759
g4
I0
sg5
S'Charles de Lint'
p1760
sg7
I50
sg8
I0
sg9
I0
sg10
I1997
sg11
S'1.0'
p1761
sg13
S'src/../data/20thCenturyCorpus/507Lint1997.txt'
p1762
sg15
S'trader'
p1763
sg17
S'Male'
p1764
sg19
I0
sg20
S'European Canadian'
p1765
ssS'504'
p1766
(dp1767
g4
I0
sg5
S'Charles de Lint'
p1768
sg7
I95
sg8
I0
sg9
I0
sg10
I1985
sg11
S'1.0'
p1769
sg13
S'src/../data/20thCenturyCorpus/504Lint1985.txt'
p1770
sg15
S'mulengro'
p1771
sg17
S'Male'
p1772
sg19
I0
sg20
S'European Canadian'
p1773
ssS'505'
p1774
(dp1775
g4
I0
sg5
S'Charles de Lint'
p1776
sg7
I41
sg8
I0
sg9
I0
sg10
I1998
sg11
S'1.0'
p1777
sg13
S'src/../data/20thCenturyCorpus/505Lint1998.txt'
p1778
sg15
S'someplace to be flying'
p1779
sg17
S'Male'
p1780
sg19
I0
sg20
S'European Canadian'
p1781
ssS'502'
p1782
(dp1783
g4
I0
sg5
S'Charles de Lint'
p1784
sg7
I47
sg8
I0
sg9
I0
sg10
I1994
sg11
S'1.0'
p1785
sg13
S'src/../data/20thCenturyCorpus/502Lint1994.txt'
p1786
sg15
S'memory and dream'
p1787
sg17
S'Male'
p1788
sg19
I0
sg20
S'European Canadian'
p1789
ssS'503'
p1790
(dp1791
g4
I0
sg5
S'Charles de Lint'
p1792
sg7
I35
sg8
I0
sg9
I0
sg10
I1984
sg11
S'1.0'
p1793
sg13
S'src/../data/20thCenturyCorpus/503Lint1984.txt'
p1794
sg15
S'moonheart'
p1795
sg17
S'Male'
p1796
sg19
I0
sg20
S'European Canadian'
p1797
ssS'501'
p1798
(dp1799
g4
I0
sg5
S'Charles de Lint'
p1800
sg7
I58
sg8
I0
sg9
I0
sg10
I1988
sg11
S'1.0'
p1801
sg13
S'src/../data/20thCenturyCorpus/501Lint1988.txt'
p1802
sg15
S'greenmantle'
p1803
sg17
S'Male'
p1804
sg19
I0
sg20
S'European Canadian'
p1805
ssS'1212'
p1806
(dp1807
g4
I0
sg5
S'Stephen King'
p1808
sg7
I84
sg8
I0
sg9
I0
sg10
I1986
sg11
S'2.0'
p1809
sg13
S'src/../data/20thCenturyCorpus/1212King1986.txt'
p1810
sg15
S'it'
p1811
sg17
S'Male'
p1812
sg19
I69
sg20
S'European American'
p1813
ssS'1213'
p1814
(dp1815
g4
I0
sg5
S'Stephen King'
p1816
sg7
I29
sg8
I0
sg9
I0
sg10
I1978
sg11
S'1.0'
p1817
sg13
S'src/../data/20thCenturyCorpus/1213King1978.txt'
p1818
sg15
S'the stand'
p1819
sg17
S'Male'
p1820
sg19
I0
sg20
S'European American'
p1821
ssS'1211'
p1822
(dp1823
g4
I0
sg5
S'Stephen King'
p1824
sg7
I0
sg8
I0
sg9
I0
sg10
I1992
sg11
S'1.0'
p1825
sg13
S'src/../data/20thCenturyCorpus/1211King1992.txt'
p1826
sg15
S'dolores clairborne'
p1827
sg17
S'Male'
p1828
sg19
I75
sg20
S'European American'
p1829
ssS'1214'
p1830
(dp1831
g4
I0
sg5
S'Stephen King and Peter Straub'
p1832
sg7
I0
sg8
I0
sg9
I0
sg10
I1984
sg11
S'1.0'
p1833
sg13
S'src/../data/20thCenturyCorpus/1214King1984.txt'
p1834
sg15
S'the talisman'
p1835
sg17
S'Male'
p1836
sg19
I67
sg20
S'European American'
p1837
ssS'1215'
p1838
(dp1839
g4
I0
sg5
S'Stephen King'
p1840
sg7
I0
sg8
I0
sg9
I0
sg10
I1987
sg11
S'1.0'
p1841
sg13
S'src/../data/20thCenturyCorpus/1215King1987.txt'
p1842
sg15
S'the tommyknockers'
p1843
sg17
S'Male'
p1844
sg19
I70
sg20
S'European American'
p1845
ssS'1351'
p1846
(dp1847
g4
I88
sg5
S'Jack London'
p1848
sg7
I75
sg8
I33
sg9
I0
sg10
I1903
sg11
S'3.0'
p1849
sg13
S'src/../data/20thCenturyCorpus/1351London1903.txt'
p1850
sg15
S'the call of the wild'
p1851
sg17
S'Male'
p1852
sg19
I0
sg20
S'European American'
p1853
ssS'461'
p1854
(dp1855
g4
I0
sg5
S'Thomas B. Costain'
p1856
sg7
I0
sg8
I0
sg9
I0
sg10
I1952
sg11
S'1.0'
p1857
sg13
S'src/../data/20thCenturyCorpus/461Costain1952.txt'
p1858
sg15
S'the silver chalice'
p1859
sg17
S'Male'
p1860
sg19
I37
sg20
S'European Canadian'
p1861
ssS'1861'
p1862
(dp1863
g4
I82
sg5
S'Wallace Stegner'
p1864
sg7
I0
sg8
I0
sg9
I0
sg10
I1971
sg11
S'1.0'
p1865
sg13
S'src/../data/20thCenturyCorpus/1861Stegner1971.txt'
p1866
sg15
S'angle of repose'
p1867
sg17
S'Male'
p1868
sg19
I0
sg20
S'European American'
p1869
ssS'161'
p1870
(dp1871
g4
I0
sg5
S'John Barth'
p1872
sg7
I0
sg8
I0
sg9
I42
sg10
I1960
sg11
S'1.0'
p1873
sg13
S'src/../data/20thCenturyCorpus/161Barth1960.txt'
p1874
sg15
S'the sot-weed factor'
p1875
sg17
S'Male'
p1876
sg19
I0
sg20
S'European American'
p1877
ssS'964'
p1878
(dp1879
g4
I0
sg5
S'Ernest Hemingway'
p1880
sg7
I0
sg8
I32
sg9
I0
sg10
I1951
sg11
S'1.0'
p1881
sg13
S'src/../data/20thCenturyCorpus/964Hemingway1951.txt'
p1882
sg15
S'the old man and the sea'
p1883
sg17
S'Male'
p1884
sg19
I0
sg20
S'European American'
p1885
ssS'965'
p1886
(dp1887
g4
I45
sg5
S'Ernest Hemingway'
p1888
sg7
I63
sg8
I18
sg9
I20
sg10
I1926
sg11
S'4.0'
p1889
sg13
S'src/../data/20thCenturyCorpus/965Hemingway1926.txt'
p1890
sg15
S'the sun also rises'
p1891
sg17
S'Male'
p1892
sg19
I0
sg20
S'European American'
p1893
ssS'961'
p1894
(dp1895
g4
I74
sg5
S'Ernest Hemingway'
p1896
sg7
I91
sg8
I20
sg9
I0
sg10
I1929
sg11
S'3.0'
p1897
sg13
S'src/../data/20thCenturyCorpus/961Hemingway1929.txt'
p1898
sg15
S'a farewell to arms'
p1899
sg17
S'Male'
p1900
sg19
I0
sg20
S'European American'
p1901
ssS'962'
p1902
(dp1903
g4
I0
sg5
S'Ernest Hemingway'
p1904
sg7
I0
sg8
I30
sg9
I0
sg10
I1940
sg11
S'1.0'
p1905
sg13
S'src/../data/20thCenturyCorpus/962Hemingway1940.txt'
p1906
sg15
S'for whom the bell tolls'
p1907
sg17
S'Male'
p1908
sg19
I0
sg20
S'European American'
p1909
ssS'963'
p1910
(dp1911
g4
I0
sg5
S'Ernest Hemingway'
p1912
sg7
I0
sg8
I77
sg9
I0
sg10
I1925
sg11
S'1.0'
p1913
sg13
S'src/../data/20thCenturyCorpus/963Hemingway1925.txt'
p1914
sg15
S'in our time'
p1915
sg17
S'Male'
p1916
sg19
I0
sg20
S'European American'
p1917
ssS'1104'
p1918
(dp1919
g4
I0
sg5
S'Henry James'
p1920
sg7
I0
sg8
I35
sg9
I0
sg10
I1881
sg11
S'1.0'
p1921
sg13
S'src/../data/20thCenturyCorpus/1104James1881.txt'
p1922
sg15
S'portrait of a lady'
p1923
sg17
S'Male'
p1924
sg19
I0
sg20
S'European American'
p1925
ssS'1105'
p1926
(dp1927
g4
I26
sg5
S'Henry James'
p1928
sg7
I0
sg8
I69
sg9
I0
sg10
I1902
sg11
S'2.0'
p1929
sg13
S'src/../data/20thCenturyCorpus/1105James1902.txt'
p1930
sg15
S'the wings of the dove'
p1931
sg17
S'Male'
p1932
sg19
I0
sg20
S'European American'
p1933
ssS'1102'
p1934
(dp1935
g4
I0
sg5
S'Henry James'
p1936
sg7
I0
sg8
I87
sg9
I0
sg10
I1886
sg11
S'1.0'
p1937
sg13
S'src/../data/20thCenturyCorpus/1102James1886.txt'
p1938
sg15
S'the bostonians'
p1939
sg17
S'Male'
p1940
sg19
I0
sg20
S'European American'
p1941
ssS'1451'
p1942
(dp1943
g4
I0
sg5
S'Joseph McElroy'
p1944
sg7
I0
sg8
I0
sg9
I39
sg10
I1974
sg11
S'1.0'
p1945
sg13
S'src/../data/20thCenturyCorpus/1451McElroy1974.txt'
p1946
sg15
S'lookout cartridge'
p1947
sg17
S'Male'
p1948
sg19
I0
sg20
S'European American'
p1949
ssS'1101'
p1950
(dp1951
g4
I27
sg5
S'Henry James'
p1952
sg7
I0
sg8
I0
sg9
I23
sg10
I1903
sg11
S'2.0'
p1953
sg13
S'src/../data/20thCenturyCorpus/1101James1903.txt'
p1954
sg15
S'the ambassadors'
p1955
sg17
S'Male'
p1956
sg19
I0
sg20
S'European American'
p1957
ssS'2101'
p1958
(dp1959
g4
I0
sg5
S'Franz Werfel'
p1960
sg7
I0
sg8
I0
sg9
I0
sg10
I1942
sg11
S'1.0'
p1961
sg13
S'src/../data/20thCenturyCorpus/2101Werfel1942.txt'
p1962
sg15
S'the song of bernadette'
p1963
sg17
S'Male'
p1964
sg19
I27
sg20
S'Austrian'
p1965
ssS'1511'
p1966
(dp1967
g4
I0
sg5
S'Ted Mooney'
p1968
sg7
I0
sg8
I0
sg9
I97
sg10
I1981
sg11
S'1.0'
p1969
sg13
S'src/../data/20thCenturyCorpus/1511Mooney1981.txt'
p1970
sg15
S'easy travels to other planets'
p1971
sg17
S'Male'
p1972
sg19
I0
sg20
S'European American'
p1973
ssS'1841'
p1974
(dp1975
g4
I76
sg5
S'Muriel Spark'
p1976
sg7
I0
sg8
I0
sg9
I0
sg10
I1961
sg11
S'1.0'
p1977
sg13
S'src/../data/20thCenturyCorpus/1841Spark1961.txt'
p1978
sg15
S'the prime of miss jean brodie'
p1979
sg17
S'Female'
p1980
sg19
I0
sg20
S'British'
p1981
ssS'641'
p1982
(dp1983
g4
I0
sg5
S'William Eastlake'
p1984
sg7
I0
sg8
I0
sg9
I67
sg10
I1956
sg11
S'1.0'
p1985
sg13
S'src/../data/20thCenturyCorpus/641Eastlake1956.txt'
p1986
sg15
S'go in beauty'
p1987
sg17
S'Male'
p1988
sg19
I0
sg20
S'European American'
p1989
ssS'1811'
p1990
(dp1991
g4
I0
sg5
S'Upton Sinclair'
p1992
sg7
I0
sg8
I45
sg9
I0
sg10
I1906
sg11
S'1.0'
p1993
sg13
S'src/../data/20thCenturyCorpus/1811Sinclair1906.txt'
p1994
sg15
S'the jungle'
p1995
sg17
S'Male'
p1996
sg19
I0
sg20
S'European American'
p1997
ssS'871'
p1998
(dp1999
g4
I40
sg5
S'Graham Greene'
p2000
sg7
I0
sg8
I0
sg9
I0
sg10
I1948
sg11
S'1.0'
p2001
sg13
S'src/../data/20thCenturyCorpus/871Greene1948.txt'
p2002
sg15
S'the heart of the matter'
p2003
sg17
S'Male'
p2004
sg19
I0
sg20
S'British'
p2005
ssS'2031'
p2006
(dp2007
g4
I0
sg5
S'Alice Walker'
p2008
sg7
I0
sg8
I5
sg9
I0
sg10
I1982
sg11
S'1.0'
p2009
sg13
S'src/../data/20thCenturyCorpus/2031Walker1982.txt'
p2010
sg15
S'the color purple'
p2011
sg17
S'Female'
p2012
sg19
I0
sg20
S'African American'
p2013
ssS'891'
p2014
(dp2015
g4
I0
sg5
S'John Grisham'
p2016
sg7
I0
sg8
I0
sg9
I0
sg10
I2008
sg11
S'1.0'
p2017
sg13
S'src/../data/20thCenturyCorpus/891Grisham2008.txt'
p2018
sg15
S'the appeal'
p2019
sg17
S'Male'
p2020
sg19
I90
sg20
S'European American'
p2021
ssS'892'
p2022
(dp2023
g4
I0
sg5
S'John Grisham'
p2024
sg7
I0
sg8
I0
sg9
I0
sg10
I2000
sg11
S'1.0'
p2025
sg13
S'src/../data/20thCenturyCorpus/892Grisham2000.txt'
p2026
sg15
S'the brethren'
p2027
sg17
S'Male'
p2028
sg19
I83
sg20
S'European American'
p2029
ssS'893'
p2030
(dp2031
g4
I0
sg5
S'John Grisham'
p2032
sg7
I0
sg8
I0
sg9
I0
sg10
I2005
sg11
S'1.0'
p2033
sg13
S'src/../data/20thCenturyCorpus/893Grisham2005.txt'
p2034
sg15
S'the broker'
p2035
sg17
S'Male'
p2036
sg19
I87
sg20
S'European American'
p2037
ssS'894'
p2038
(dp2039
g4
I0
sg5
S'John Grisham'
p2040
sg7
I0
sg8
I0
sg9
I0
sg10
I1994
sg11
S'1.0'
p2041
sg13
S'src/../data/20thCenturyCorpus/894Grisham1994.txt'
p2042
sg15
S'the chamber'
p2043
sg17
S'Male'
p2044
sg19
I77
sg20
S'European American'
p2045
ssS'895'
p2046
(dp2047
g4
I0
sg5
S'John Grisham'
p2048
sg7
I0
sg8
I0
sg9
I0
sg10
I2011
sg11
S'1.0'
p2049
sg13
S'src/../data/20thCenturyCorpus/895Grisham2011.txt'
p2050
sg15
S'the litigators'
p2051
sg17
S'Male'
p2052
sg19
I93
sg20
S'European American'
p2053
ssS'896'
p2054
(dp2055
g4
I0
sg5
S'John Grisham'
p2056
sg7
I0
sg8
I0
sg9
I0
sg10
I1997
sg11
S'1.0'
p2057
sg13
S'src/../data/20thCenturyCorpus/896Grisham1997.txt'
p2058
sg15
S'the partner'
p2059
sg17
S'Male'
p2060
sg19
I80
sg20
S'European American'
p2061
ssS'897'
p2062
(dp2063
g4
I0
sg5
S'John Grisham'
p2064
sg7
I0
sg8
I0
sg9
I0
sg10
I1995
sg11
S'1.0'
p2065
sg13
S'src/../data/20thCenturyCorpus/897Grisham1995.txt'
p2066
sg15
S'the rainmaker'
p2067
sg17
S'Male'
p2068
sg19
I78
sg20
S'European American'
p2069
ssS'898'
p2070
(dp2071
g4
I0
sg5
S'John Grisham'
p2072
sg7
I0
sg8
I0
sg9
I0
sg10
I1996
sg11
S'1.0'
p2073
sg13
S'src/../data/20thCenturyCorpus/898Grisham1996.txt'
p2074
sg15
S'the runaway jury'
p2075
sg17
S'Male'
p2076
sg19
I79
sg20
S'European American'
p2077
ssS'899'
p2078
(dp2079
g4
I0
sg5
S'John Grisham'
p2080
sg7
I0
sg8
I0
sg9
I0
sg10
I1998
sg11
S'1.0'
p2081
sg13
S'src/../data/20thCenturyCorpus/899Grisham1998.txt'
p2082
sg15
S'the street lawyer'
p2083
sg17
S'Male'
p2084
sg19
I81
sg20
S'European American'
p2085
ssS'1601'
p2086
(dp2087
g4
I0
sg5
S'Boris Pasternak'
p2088
sg7
I0
sg8
I0
sg9
I0
sg10
I1958
sg11
S'1.0'
p2089
sg13
S'src/../data/20thCenturyCorpus/1601Pasternak1958.txt'
p2090
sg15
S'doctor zhivago'
p2091
sg17
S'Male'
p2092
sg19
I42
sg20
S'Russian'
p2093
ssS'1972'
p2094
(dp2095
g4
I0
sg5
S'J. R. R. Tolkien and Christopher Tolkien'
p2096
sg7
I0
sg8
I0
sg9
I0
sg10
I1977
sg11
S'1.0'
p2097
sg13
S'src/../data/20thCenturyCorpus/1972Tolkien1977.txt'
p2098
sg15
S'the silmarillion'
p2099
sg17
S'Male'
p2100
sg19
I60
sg20
S'British'
p2101
ssS'1971'
p2102
(dp2103
g4
I0
sg5
S'J.R.R. Tolkien'
p2104
sg7
I4
sg8
I40
sg9
I0
sg10
I1942
sg11
S'2.0'
p2105
sg13
S'src/../data/20thCenturyCorpus/1971Tolkien1937-1949.txt'
p2106
sg15
S'the lord of the rings'
p2107
sg17
S'Male'
p2108
sg19
I0
sg20
S'British'
p2109
ssS'8910'
p2110
(dp2111
g4
I0
sg5
S'John Grisham'
p2112
sg7
I0
sg8
I0
sg9
I0
sg10
I2002
sg11
S'1.0'
p2113
sg13
S'src/../data/20thCenturyCorpus/8910Grisham2002.txt'
p2114
sg15
S'the summons'
p2115
sg17
S'Male'
p2116
sg19
I85
sg20
S'European American'
p2117
ssS'8911'
p2118
(dp2119
g4
I0
sg5
S'John Grisham'
p2120
sg7
I0
sg8
I0
sg9
I0
sg10
I1999
sg11
S'1.0'
p2121
sg13
S'src/../data/20thCenturyCorpus/8911Grisham1999.txt'
p2122
sg15
S'the testament'
p2123
sg17
S'Male'
p2124
sg19
I82
sg20
S'European American'
p2125
ssS'351'
p2126
(dp2127
g4
I0
sg5
S'Orson Scott Card'
p2128
sg7
I59
sg8
I0
sg9
I0
sg10
I1985
sg11
S'1.0'
p2129
sg13
S'src/../data/20thCenturyCorpus/351Card1985.txt'
p2130
sg15
S"ender's game"
p2131
sg17
S'Male'
p2132
sg19
I0
sg20
S'European American'
p2133
ssS'803'
p2134
(dp2135
g4
I0
sg5
S'William H. Gass'
p2136
sg7
I0
sg8
I0
sg9
I81
sg10
I1995
sg11
S'1.0'
p2137
sg13
S'src/../data/20thCenturyCorpus/803Gass1995.txt'
p2138
sg15
S'the tunnel'
p2139
sg17
S'Male'
p2140
sg19
I0
sg20
S'European American'
p2141
ssS'802'
p2142
(dp2143
g4
I0
sg5
S'William H. Gass'
p2144
sg7
I0
sg8
I0
sg9
I82
sg10
I1966
sg11
S'1.0'
p2145
sg13
S'src/../data/20thCenturyCorpus/802Gass1966.txt'
p2146
sg15
S"omensetter's luck"
p2147
sg17
S'Male'
p2148
sg19
I0
sg20
S'European American'
p2149
ssS'801'
p2150
(dp2151
g4
I0
sg5
S'William H. Gass'
p2152
sg7
I0
sg8
I0
sg9
I16
sg10
I1968
sg11
S'1.0'
p2153
sg13
S'src/../data/20thCenturyCorpus/801Gass1968.txt'
p2154
sg15
S'in the heart of the heart of the country'
p2155
sg17
S'Male'
p2156
sg19
I0
sg20
S'European American'
p2157
ssS'212'
p2158
(dp2159
g4
I81
sg5
S'Saul Bellow'
p2160
sg7
I0
sg8
I0
sg9
I0
sg10
I1953
sg11
S'1.0'
p2161
sg13
S'src/../data/20thCenturyCorpus/212Bellow1953.txt'
p2162
sg15
S'the adventures of augie march'
p2163
sg17
S'Male'
p2164
sg19
I0
sg20
S'European American'
p2165
ssS'211'
p2166
(dp2167
g4
I21
sg5
S'Saul Bellow'
p2168
sg7
I0
sg8
I0
sg9
I0
sg10
I1959
sg11
S'1.0'
p2169
sg13
S'src/../data/20thCenturyCorpus/211Bellow1959.txt'
p2170
sg15
S'henderson the rain king'
p2171
sg17
S'Male'
p2172
sg19
I0
sg20
S'European American'
p2173
ssS'762'
p2174
(dp2175
g4
I30
sg5
S'Ford Madox Ford'
p2176
sg7
I0
sg8
I0
sg9
I0
sg10
I1915
sg11
S'1.0'
p2177
sg13
S'src/../data/20thCenturyCorpus/762Ford1915.txt'
p2178
sg15
S'the good soldier'
p2179
sg17
S'Male'
p2180
sg19
I0
sg20
S'British'
p2181
ssS'1781'
p2182
(dp2183
g4
I0
sg5
S'Jack Schaefer'
p2184
sg7
I26
sg8
I0
sg9
I0
sg10
I1949
sg11
S'1.0'
p2185
sg13
S'src/../data/20thCenturyCorpus/1781Schaefer1949.txt'
p2186
sg15
S'shane'
p2187
sg17
S'Male'
p2188
sg19
I0
sg20
S'European American'
p2189
ssS'761'
p2190
(dp2191
g4
I57
sg5
S'Ford Madox Ford'
p2192
sg7
I0
sg8
I0
sg9
I0
sg10
I1925
sg11
S'1.0'
p2193
sg13
S'src/../data/20thCenturyCorpus/761Ford1925.txt'
p2194
sg15
S"parade's end"
p2195
sg17
S'Male'
p2196
sg19
I0
sg20
S'British'
p2197
ssS'1771'
p2198
(dp2199
g4
I0
sg5
S'J.D. Salinger'
p2200
sg7
I0
sg8
I54
sg9
I0
sg10
I1961
sg11
S'1.0'
p2201
sg13
S'src/../data/20thCenturyCorpus/1771Salinger1961.txt'
p2202
sg15
S'franny and zooey'
p2203
sg17
S'Male'
p2204
sg19
I0
sg20
S'European American'
p2205
ssS'1772'
p2206
(dp2207
g4
I64
sg5
S'J.D. Salinger'
p2208
sg7
I19
sg8
I2
sg9
I60
sg10
I1951
sg11
S'4.0'
p2209
sg13
S'src/../data/20thCenturyCorpus/1772Salinger1951.txt'
p2210
sg15
S'the catcher in the rye'
p2211
sg17
S'Male'
p2212
sg19
I0
sg20
S'European American'
p2213
ssS'1072'
p2214
(dp2215
g4
I0
sg5
S'John Irving'
p2216
sg7
I64
sg8
I37
sg9
I0
sg10
I1978
sg11
S'2.0'
p2217
sg13
S'src/../data/20thCenturyCorpus/1072Irving1978.txt'
p2218
sg15
S'the world according to garp'
p2219
sg17
S'Male'
p2220
sg19
I0
sg20
S'European American'
p2221
ssS'1071'
p2222
(dp2223
g4
I0
sg5
S'John Irving'
p2224
sg7
I28
sg8
I0
sg9
I0
sg10
I1989
sg11
S'1.0'
p2225
sg13
S'src/../data/20thCenturyCorpus/1071Irving1989.txt'
p2226
sg15
S'a prayer for owen meany'
p2227
sg17
S'Male'
p2228
sg19
I0
sg20
S'European American'
p2229
ssS'281'
p2230
(dp2231
g4
I0
sg5
S'Pearl S. Buck'
p2232
sg7
I0
sg8
I0
sg9
I0
sg10
I1931
sg11
S'1.0'
p2233
sg13
S'src/../data/20thCenturyCorpus/281Buck1931.txt'
p2234
sg15
S'the good earth'
p2235
sg17
S'Female'
p2236
sg19
I19
sg20
S'European American'
p2237
ssS'1671'
p2238
(dp2239
g4
I0
sg5
S'Marjorie Kinnan Rawlings'
p2240
sg7
I0
sg8
I0
sg9
I0
sg10
I1938
sg11
S'1.0'
p2241
sg13
S'src/../data/20thCenturyCorpus/1671Rawlings1938.txt'
p2242
sg15
S'the yearling'
p2243
sg17
S'Female'
p2244
sg19
I23
sg20
S'European American'
p2245
ssS'1091'
p2246
(dp2247
g4
I0
sg5
S'E. L. James'
p2248
sg7
I0
sg8
I0
sg9
I0
sg10
I2012
sg11
S'1.0'
p2249
sg13
S'src/../data/20thCenturyCorpus/1091James2011.txt'
p2250
sg15
S'fifty shades of grey'
p2251
sg17
S'Female'
p2252
sg19
I94
sg20
S'British'
p2253
ssS'1151'
p2254
(dp2255
g4
I0
sg5
S'Steve Katz'
p2256
sg7
I0
sg8
I0
sg9
I91
sg10
I1971
sg11
S'1.0'
p2257
sg13
S'src/../data/20thCenturyCorpus/1151Katz1971.txt'
p2258
sg15
S'creamy & delicious'
p2259
sg17
S'Male'
p2260
sg19
I0
sg20
S'European American'
p2261
ssS'671'
p2262
(dp2263
g4
I0
sg5
S'Brett Easton Ellis'
p2264
sg7
I0
sg8
I0
sg9
I76
sg10
I1991
sg11
S'1.0'
p2265
sg13
S'src/../data/20thCenturyCorpus/671Ellis1991.txt'
p2266
sg15
S'american psycho'
p2267
sg17
S'Male'
p2268
sg19
I0
sg20
S'European American'
p2269
ssS'261'
p2270
(dp2271
g4
I0
sg5
S'William Brinkley'
p2272
sg7
I0
sg8
I0
sg9
I0
sg10
I1956
sg11
S'1.0'
p2273
sg13
S'src/../data/20thCenturyCorpus/261Brinkley1956.txt'
p2274
sg15
S"don't go near the water"
p2275
sg17
S'Male'
p2276
sg19
I40
sg20
S'European American'
p2277
ssS'1551'
p2278
(dp2279
g4
I83
sg5
S'V.S. Naipaul'
p2280
sg7
I0
sg8
I0
sg9
I0
sg10
I1979
sg11
S'1.0'
p2281
sg13
S'src/../data/20thCenturyCorpus/1551Naipaul1979.txt'
p2282
sg15
S'a bend in the river'
p2283
sg17
S'Male'
p2284
sg19
I0
sg20
S'Caribbean British'
p2285
ssS'1552'
p2286
(dp2287
g4
I72
sg5
S'V.S. Naipaul'
p2288
sg7
I0
sg8
I0
sg9
I0
sg10
I1961
sg11
S'1.0'
p2289
sg13
S'src/../data/20thCenturyCorpus/1552Naipaul1961.txt'
p2290
sg15
S'a house for mr biswas'
p2291
sg17
S'Male'
p2292
sg19
I0
sg20
S'Caribbean British'
p2293
ssS'61'
p2294
(dp2295
g4
I0
sg5
S'Hervey Allen'
p2296
sg7
I0
sg8
I0
sg9
I0
sg10
I1934
sg11
S'1.0'
p2297
sg13
S'src/../data/20thCenturyCorpus/61Allen1934.txt'
p2298
sg15
S'anthony adverse'
p2299
sg17
S'Male'
p2300
sg19
I20
sg20
S'European American'
p2301
ssS'51'
p2302
(dp2303
g4
I0
sg5
S'Mitch Albom'
p2304
sg7
I0
sg8
I0
sg9
I0
sg10
I2006
sg11
S'1.0'
p2305
sg13
S'src/../data/20thCenturyCorpus/51Albom2006.txt'
p2306
sg15
S'for one more day'
p2307
sg17
S'Male'
p2308
sg19
I88
sg20
S'European American'
p2309
ssS'531'
p2310
(dp2311
g4
I0
sg5
S'Phillip K. Dick'
p2312
sg7
I0
sg8
I0
sg9
I75
sg10
I1962
sg11
S'1.0'
p2313
sg13
S'src/../data/20thCenturyCorpus/531Dick1962.txt'
p2314
sg15
S'the man in the high castle'
p2315
sg17
S'Male'
p2316
sg19
I0
sg20
S'European American'
p2317
ssS'1411'
p2318
(dp2319
g4
I0
sg5
S'Harry Mathews'
p2320
sg7
I0
sg8
I0
sg9
I73
sg10
I1966
sg11
S'1.0'
p2321
sg13
S'src/../data/20thCenturyCorpus/1411Mathews1966.txt'
p2322
sg15
S'tlooth'
p2323
sg17
S'Male'
p2324
sg19
I0
sg20
S'European American'
p2325
ssS'2251'
p2326
(dp2327
g4
I0
sg5
S'Stephen Wright'
p2328
sg7
I0
sg8
I0
sg9
I13
sg10
I1994
sg11
S'1.0'
p2329
sg13
S'src/../data/20thCenturyCorpus/2251Wright1994.txt'
p2330
sg15
S'going native'
p2331
sg17
S'Male'
p2332
sg19
I0
sg20
S'European American'
p2333
ssS'1321'
p2334
(dp2335
g4
I0
sg5
S'Doris Lessing'
p2336
sg7
I0
sg8
I0
sg9
I59
sg10
I1962
sg11
S'1.0'
p2337
sg13
S'src/../data/20thCenturyCorpus/1321Lessing1962.txt'
p2338
sg15
S'the golden notebook'
p2339
sg17
S'Female'
p2340
sg19
I0
sg20
S'British'
p2341
ssS'981'
p2342
(dp2343
g4
I0
sg5
S'Russell Hoban'
p2344
sg7
I0
sg8
I0
sg9
I66
sg10
I1982
sg11
S'1.0'
p2345
sg13
S'src/../data/20thCenturyCorpus/981Hoban1982.txt'
p2346
sg15
S'riddley walker'
p2347
sg17
S'Male'
p2348
sg19
I0
sg20
S'European American'
p2349
ssS'111'
p2350
(dp2351
g4
I0
sg5
S'Paul Auster'
p2352
sg7
I0
sg8
I0
sg9
I69
sg10
I1986
sg11
S'1.0'
p2353
sg13
S'src/../data/20thCenturyCorpus/111Auster1986.txt'
p2354
sg15
S'the new york trilogy: city of glass, ghosts, the locked room'
p2355
sg17
S'Male'
p2356
sg19
I0
sg20
S'European American'
p2357
ssS'1851'
p2358
(dp2359
g4
I0
sg5
S'Mickey Spillane'
p2360
sg7
I46
sg8
I0
sg9
I0
sg10
I1951
sg11
S'1.0'
p2361
sg13
S'src/../data/20thCenturyCorpus/1851Spillane1951.txt'
p2362
sg15
S'one lonely night'
p2363
sg17
S'Male'
p2364
sg19
I0
sg20
S'European American'
p2365
ssS'2171'
p2366
(dp2367
g4
I0
sg5
S'Kathleen Winsor'
p2368
sg7
I0
sg8
I0
sg9
I0
sg10
I1945
sg11
S'1.0'
p2369
sg13
S'src/../data/20thCenturyCorpus/2171Winsor1944.txt'
p2370
sg15
S'forever amber'
p2371
sg17
S'Female'
p2372
sg19
I30
sg20
S'European American'
p2373
ssS'1521'
p2374
(dp2375
g4
I0
sg5
S'Toni Morrison'
p2376
sg7
I31
sg8
I7
sg9
I12
sg10
I1986
sg11
S'3.0'
p2377
sg13
S'src/../data/20thCenturyCorpus/1521Morrison1987.txt'
p2378
sg15
S'beloved'
p2379
sg17
S'Female'
p2380
sg19
I0
sg20
S'African American'
p2381
ssS'1522'
p2382
(dp2383
g4
I0
sg5
S'Toni Morrison'
p2384
sg7
I0
sg8
I56
sg9
I0
sg10
I1992
sg11
S'1.0'
p2385
sg13
S'src/../data/20thCenturyCorpus/1522Morrison1992.txt'
p2386
sg15
S'jazz'
p2387
sg17
S'Female'
p2388
sg19
I0
sg20
S'African American'
p2389
ssS'1251'
p2390
(dp2391
g4
I0
sg5
S'William Kotzwinkle'
p2392
sg7
I0
sg8
I0
sg9
I0
sg10
I1982
sg11
S'1.0'
p2393
sg13
S'src/../data/20thCenturyCorpus/1251Kotzwinkle1982.txt'
p2394
sg15
S'e.t., the extraterrestrial'
p2395
sg17
S'Male'
p2396
sg19
I65
sg20
S'European American'
p2397
ssS'421'
p2398
(dp2399
g4
I0
sg5
S'James Clavell'
p2400
sg7
I0
sg8
I0
sg9
I0
sg10
I1981
sg11
S'1.0'
p2401
sg13
S'src/../data/20thCenturyCorpus/421Clavell1981.txt'
p2402
sg15
S'noble house'
p2403
sg17
S'Male'
p2404
sg19
I64
sg20
S'British'
p2405
ssS'2071'
p2406
(dp2407
g4
I36
sg5
S'Robert Penn Warren'
p2408
sg7
I0
sg8
I38
sg9
I0
sg10
I1946
sg11
S'2.0'
p2409
sg13
S'src/../data/20thCenturyCorpus/2071Warren1946.txt'
p2410
sg15
S"all the king's men"
p2411
sg17
S'Male'
p2412
sg19
I0
sg20
S'European American'
p2413
ssS'911'
p2414
(dp2415
g4
I0
sg5
S'Laurell K. Hamilton'
p2416
sg7
I82
sg8
I0
sg9
I0
sg10
I1993
sg11
S'1.0'
p2417
sg13
S'src/../data/20thCenturyCorpus/911Hamilton1993.txt'
p2418
sg15
S'guilty pleasures'
p2419
sg17
S'Female'
p2420
sg19
I0
sg20
S'European American'
p2421
ssS'1391'
p2422
(dp2423
g4
I51
sg5
S'Norman Mailer'
p2424
sg7
I0
sg8
I80
sg9
I89
sg10
I1948
sg11
S'3.0'
p2425
sg13
S'src/../data/20thCenturyCorpus/1391Mailer1948.txt'
p2426
sg15
S'the naked and the dead'
p2427
sg17
S'Male'
p2428
sg19
I0
sg20
S'European American'
p2429
ssS'301'
p2430
(dp2431
g4
I0
sg5
S'William S. Burroughs'
p2432
sg7
I80
sg8
I73
sg9
I0
sg10
I1959
sg11
S'2.0'
p2433
sg13
S'src/../data/20thCenturyCorpus/301Burroughs1959.txt'
p2434
sg15
S'naked lunch'
p2435
sg17
S'Male'
p2436
sg19
I0
sg20
S'European American'
p2437
ssS'302'
p2438
(dp2439
g4
I0
sg5
S'William S. Burroughs'
p2440
sg7
I0
sg8
I0
sg9
I8
sg10
I1964
sg11
S'1.0'
p2441
sg13
S'src/../data/20thCenturyCorpus/302Burroughs1964.txt'
p2442
sg15
S'the nova trilogy: the soft machine, nova express, the ticket that exploded'
p2443
sg17
S'Male'
p2444
sg19
I0
sg20
S'European American'
p2445
ssS'303'
p2446
(dp2447
g4
I0
sg5
S'William S. Burroughs'
p2448
sg7
I0
sg8
I0
sg9
I8
sg10
I1961
sg11
S'1.0'
p2449
sg13
S'src/../data/20thCenturyCorpus/303Burroughs1961.txt'
p2450
sg15
S'the soft machine'
p2451
sg17
S'Male'
p2452
sg19
I0
sg20
S'European American'
p2453
ssS'304'
p2454
(dp2455
g4
I0
sg5
S'William S. Burroughs'
p2456
sg7
I0
sg8
I0
sg9
I8
sg10
I1962
sg11
S'1.0'
p2457
sg13
S'src/../data/20thCenturyCorpus/304Burroughs1962.txt'
p2458
sg15
S'the ticket that exploded'
p2459
sg17
S'Male'
p2460
sg19
I0
sg20
S'European American'
p2461
ssS'1931'
p2462
(dp2463
g4
I0
sg5
S'Jacqueline Susann'
p2464
sg7
I0
sg8
I0
sg9
I0
sg10
I1966
sg11
S'1.0'
p2465
sg13
S'src/../data/20thCenturyCorpus/1931Susann1966.txt'
p2466
sg15
S'valley of the dolls'
p2467
sg17
S'Female'
p2468
sg19
I50
sg20
S'European American'
p2469
ssS'841'
p2470
(dp2471
g4
I0
sg5
S'Kenneth Grahame'
p2472
sg7
I0
sg8
I90
sg9
I0
sg10
I1908
sg11
S'1.0'
p2473
sg13
S'src/../data/20thCenturyCorpus/841Grahame1908.txt'
p2474
sg15
S'the wind in the willows'
p2475
sg17
S'Male'
p2476
sg19
I0
sg20
S'British'
p2477
ssS'1631'
p2478
(dp2479
g4
I0
sg5
S'Katherine Anne Porter'
p2480
sg7
I0
sg8
I0
sg9
I0
sg10
I1962
sg11
S'1.0'
p2481
sg13
S'src/../data/20thCenturyCorpus/1631Porter1962.txt'
p2482
sg15
S'ship of fools'
p2483
sg17
S'Female'
p2484
sg19
I46
sg20
S'European American'
p2485
ssS'1981'
p2486
(dp2487
g4
I0
sg5
S'Jean Toomer'
p2488
sg7
I0
sg8
I0
sg9
I64
sg10
I1925
sg11
S'1.0'
p2489
sg13
S'src/../data/20thCenturyCorpus/1981Toomer1923.txt'
p2490
sg15
S'cane'
p2491
sg17
S'Male'
p2492
sg19
I0
sg20
S'African American'
p2493
ssS'1731'
p2494
(dp2495
g4
I0
sg5
S'Henry Morton Robinson'
p2496
sg7
I0
sg8
I0
sg9
I0
sg10
I1950
sg11
S'1.0'
p2497
sg13
S'src/../data/20thCenturyCorpus/1731Robinson1950.txt'
p2498
sg15
S'the cardinal'
p2499
sg17
S'Male'
p2500
sg19
I35
sg20
S'European American'
p2501
ssS'753'
p2502
(dp2503
g4
I2
sg5
S'F. Scott Fitzgerald'
p2504
sg7
I13
sg8
I1
sg9
I22
sg10
I1925
sg11
S'4.0'
p2505
sg13
S'src/../data/20thCenturyCorpus/753Fitzgerald1925.txt'
p2506
sg15
S'the great gatsby'
p2507
sg17
S'Male'
p2508
sg19
I0
sg20
S'European American'
p2509
ssS'752'
p2510
(dp2511
g4
I0
sg5
S'F. Scott Fitzgerald'
p2512
sg7
I0
sg8
I96
sg9
I0
sg10
I1922
sg11
S'1.0'
p2513
sg13
S'src/../data/20thCenturyCorpus/752Fitzgerald1922.txt'
p2514
sg15
S'the beautiful and the damned'
p2515
sg17
S'Male'
p2516
sg19
I0
sg20
S'European American'
p2517
ssS'751'
p2518
(dp2519
g4
I28
sg5
S'F. Scott Fitzgerald'
p2520
sg7
I0
sg8
I62
sg9
I0
sg10
I1934
sg11
S'2.0'
p2521
sg13
S'src/../data/20thCenturyCorpus/751Fitzgerald1934.txt'
p2522
sg15
S'tender is the night'
p2523
sg17
S'Male'
p2524
sg19
I0
sg20
S'European American'
p2525
ssS'754'
p2526
(dp2527
g4
I0
sg5
S'F. Scott Fitzgerald'
p2528
sg7
I0
sg8
I91
sg9
I0
sg10
I1920
sg11
S'1.0'
p2529
sg13
S'src/../data/20thCenturyCorpus/754Fitzgerald1920.txt'
p2530
sg15
S'this side of paradise'
p2531
sg17
S'Male'
p2532
sg19
I0
sg20
S'European American'
p2533
ssS'561'
p2534
(dp2535
g4
I99
sg5
S'J.P. Donleavy'
p2536
sg7
I0
sg8
I0
sg9
I0
sg10
I1955
sg11
S'1.0'
p2537
sg13
S'src/../data/20thCenturyCorpus/561Donleavy1955.txt'
p2538
sg15
S'the ginger man'
p2539
sg17
S'Male'
p2540
sg19
I0
sg20
S'European American'
p2541
ssS'2181'
p2542
(dp2543
g4
I0
sg5
S'Gene Wolfe'
p2544
sg7
I0
sg8
I0
sg9
I78
sg10
I1981
sg11
S'1.0'
p2545
sg13
S'src/../data/20thCenturyCorpus/2181Wolfe1981.txt'
p2546
sg15
S'the book of the new sun" tetralogy'
p2547
sg17
S'Male'
p2548
sg19
I0
sg20
S'European American'
p2549
ssS'1591'
p2550
(dp2551
g4
I31
sg5
S'George Orwell'
p2552
sg7
I20
sg8
I17
sg9
I0
sg10
I1945
sg11
S'3.0'
p2553
sg13
S'src/../data/20thCenturyCorpus/1591Orwell1945.txt'
p2554
sg15
S'animal farm'
p2555
sg17
S'Male '
p2556
sg19
I0
sg20
S'British'
p2557
ssS'1592'
p2558
(dp2559
g4
I13
sg5
S'George Orwell'
p2560
sg7
I6
sg8
I9
sg9
I0
sg10
I1949
sg11
S'3.0'
p2561
sg13
S'src/../data/20thCenturyCorpus/1592Orwell1949.txt'
p2562
sg15
S'1984.0'
p2563
sg17
S'Male '
p2564
sg19
I0
sg20
S'British'
p2565
ssS'221'
p2566
(dp2567
g4
I87
sg5
S'Arnold Bennett'
p2568
sg7
I0
sg8
I0
sg9
I0
sg10
I1908
sg11
S'1.0'
p2569
sg13
S'src/../data/20thCenturyCorpus/221Bennett1908.txt'
p2570
sg15
S"the old wives' tale"
p2571
sg17
S'Male'
p2572
sg19
I0
sg20
S'British'
p2573
ssS'2213'
p2574
(dp2575
g4
I15
sg5
S'Virginia Woolf'
p2576
sg7
I48
sg8
I34
sg9
I15
sg10
I1927
sg11
S'4.0'
p2577
sg13
S'src/../data/20thCenturyCorpus/2213Woolf1927.txt'
p2578
sg15
S'to the lighthouse'
p2579
sg17
S'Female'
p2580
sg19
I0
sg20
S'British'
p2581
ssS'2212'
p2582
(dp2583
g4
I0
sg5
S'Virginia Woolf'
p2584
sg7
I0
sg8
I63
sg9
I0
sg10
I1928
sg11
S'1.0'
p2585
sg13
S'src/../data/20thCenturyCorpus/2212Woolf1928.txt'
p2586
sg15
S'orlando'
p2587
sg17
S'Female'
p2588
sg19
I0
sg20
S'British'
p2589
ssS'2211'
p2590
(dp2591
g4
I0
sg5
S'Virginia Woolf'
p2592
sg7
I0
sg8
I46
sg9
I0
sg10
I1925
sg11
S'1.0'
p2593
sg13
S'src/../data/20thCenturyCorpus/2211Woolf1925.txt'
p2594
sg15
S'mrs. dalloway'
p2595
sg17
S'Female'
p2596
sg19
I0
sg20
S'British'
p2597
ssS'1031'
p2598
(dp2599
g4
I0
sg5
S'Zora Neale Hurston'
p2600
sg7
I0
sg8
I23
sg9
I31
sg10
I1937
sg11
S'2.0'
p2601
sg13
S'src/../data/20thCenturyCorpus/1031Hurston1937.txt'
p2602
sg15
S'their eyes were watching god'
p2603
sg17
S'Female'
p2604
sg19
I0
sg20
S'African American'
p2605
ssS'1021'
p2606
(dp2607
g4
I71
sg5
S'Richard Hughes'
p2608
sg7
I0
sg8
I0
sg9
I0
sg10
I1929
sg11
S'1.0'
p2609
sg13
S'src/../data/20thCenturyCorpus/1021Hughes1929.txt'
p2610
sg15
S'a high wind in jamaica'
p2611
sg17
S'Male'
p2612
sg19
I0
sg20
S'British'
p2613
ssS'1481'
p2614
(dp2615
g4
I50
sg5
S'Henry Miller'
p2616
sg7
I68
sg8
I84
sg9
I37
sg10
I1934
sg11
S'4.0'
p2617
sg13
S'src/../data/20thCenturyCorpus/1481Miller1934.txt'
p2618
sg15
S'tropic of cancer'
p2619
sg17
S'Male'
p2620
sg19
I0
sg20
S'European American'
p2621
ssS'1181'
p2622
(dp2623
g4
I92
sg5
S'William Kennedy'
p2624
sg7
I0
sg8
I0
sg9
I80
sg10
I1983
sg11
S'1.0'
p2625
sg13
S'src/../data/20thCenturyCorpus/1181Kennedy1983.txt'
p2626
sg15
S'ironweed'
p2627
sg17
S'Male'
p2628
sg19
I0
sg20
S'European American'
p2629
ssS'724'
p2630
(dp2631
g4
I6
sg5
S'William Faulkner'
p2632
sg7
I33
sg8
I10
sg9
I5
sg10
I1929
sg11
S'4.0'
p2633
sg13
S'src/../data/20thCenturyCorpus/724Faulkner1929.txt'
p2634
sg15
S'the sound and the fury'
p2635
sg17
S'Male'
p2636
sg19
I0
sg20
S'European American'
p2637
ssS'722'
p2638
(dp2639
g4
I35
sg5
S'William Faulkner'
p2640
sg7
I67
sg8
I19
sg9
I0
sg10
I1930
sg11
S'3.0'
p2641
sg13
S'src/../data/20thCenturyCorpus/722Faulkner1930.txt'
p2642
sg15
S'as i lay dying'
p2643
sg17
S'Male'
p2644
sg19
I0
sg20
S'European American'
p2645
ssS'723'
p2646
(dp2647
g4
I54
sg5
S'William Faulkner'
p2648
sg7
I89
sg8
I68
sg9
I0
sg10
I1932
sg11
S'3.0'
p2649
sg13
S'src/../data/20thCenturyCorpus/723Faulkner1932.txt'
p2650
sg15
S'light in august'
p2651
sg17
S'Male'
p2652
sg19
I0
sg20
S'European American'
p2653
ssS'721'
p2654
(dp2655
g4
I0
sg5
S'William Faulkner'
p2656
sg7
I36
sg8
I58
sg9
I32
sg10
I1936
sg11
S'3.0'
p2657
sg13
S'src/../data/20thCenturyCorpus/721Faulkner1936.txt'
p2658
sg15
S'absalom, absalom!'
p2659
sg17
S'Male'
p2660
sg19
I0
sg20
S'European American'
p2661
ssS'1741'
p2662
(dp2663
g4
I0
sg5
S'Marilynne Robinson'
p2664
sg7
I0
sg8
I0
sg9
I53
sg10
I1980
sg11
S'1.0'
p2665
sg13
S'src/../data/20thCenturyCorpus/1741Robinson1980.txt'
p2666
sg15
S'housekeeping'
p2667
sg17
S'Female'
p2668
sg19
I0
sg20
S'European American'
p2669
ssS'151'
p2670
(dp2671
g4
I0
sg5
S'Djuna Barnes'
p2672
sg7
I0
sg8
I0
sg9
I52
sg10
I1937
sg11
S'1.0'
p2673
sg13
S'src/../data/20thCenturyCorpus/151Barnes1937.txt'
p2674
sg15
S'nightwood'
p2675
sg17
S'Female'
p2676
sg19
I0
sg20
S'European American'
p2677
ssS'601'
p2678
(dp2679
g4
I0
sg5
S'Allen Drury'
p2680
sg7
I0
sg8
I0
sg9
I0
sg10
I1960
sg11
S'1.0'
p2681
sg13
S'src/../data/20thCenturyCorpus/601Drury1960.txt'
p2682
sg15
S'advise and consent'
p2683
sg17
S'Male'
p2684
sg19
I44
sg20
S'European American'
p2685
ssS'1161'
p2686
(dp2687
g4
I0
sg5
S'Elia Kazan'
p2688
sg7
I0
sg8
I0
sg9
I0
sg10
I1967
sg11
S'1.0'
p2689
sg13
S'src/../data/20thCenturyCorpus/1161Kazan1967.txt'
p2690
sg15
S'the arrangement'
p2691
sg17
S'Male'
p2692
sg19
I51
sg20
S'European American'
p2693
ssS'631'
p2694
(dp2695
g4
I70
sg5
S'Lawrence Durell'
p2696
sg7
I0
sg8
I0
sg9
I0
sg10
I1958
sg11
S'1.0'
p2697
sg13
S'src/../data/20thCenturyCorpus/631Durrell1957-1960.txt'
p2698
sg15
S'the alexandria quartet'
p2699
sg17
S'Male'
p2700
sg19
I0
sg20
S'British'
p2701
ssS'1201'
p2702
(dp2703
g4
I0
sg5
S'Ken Kesey'
p2704
sg7
I90
sg8
I28
sg9
I0
sg10
I1962
sg11
S'2.0'
p2705
sg13
S'src/../data/20thCenturyCorpus/1201Kesey1962.txt'
p2706
sg15
S"one flew over the cuckoo's nest"
p2707
sg17
S'Male'
p2708
sg19
I0
sg20
S'European American'
p2709
ssS'1202'
p2710
(dp2711
g4
I0
sg5
S'Ken Kesey'
p2712
sg7
I93
sg8
I0
sg9
I0
sg10
I1964
sg11
S'1.0'
p2713
sg13
S'src/../data/20thCenturyCorpus/1202Kesey1964.txt'
p2714
sg15
S'sometimes a great notion'
p2715
sg17
S'Male'
p2716
sg19
I0
sg20
S'European American'
p2717
ssS'1891'
p2718
(dp2719
g4
I0
sg5
S'Irving Stone'
p2720
sg7
I0
sg8
I0
sg9
I0
sg10
I1961
sg11
S'1.0'
p2721
sg13
S'src/../data/20thCenturyCorpus/1891Stone1961.txt'
p2722
sg15
S'the agony and the ecstasy'
p2723
sg17
S'Male'
p2724
sg19
I45
sg20
S'European American'
p2725
ssS'2132'
p2726
(dp2727
g4
I58
sg5
S'Edith Wharton'
p2728
sg7
I0
sg8
I42
sg9
I0
sg10
I1920
sg11
S'2.0'
p2729
sg13
S'src/../data/20thCenturyCorpus/2132Wharton1920.txt'
p2730
sg15
S'the age of innocence'
p2731
sg17
S'Female'
p2732
sg19
I0
sg20
S'European American'
p2733
ssS'2133'
p2734
(dp2735
g4
I69
sg5
S'Edith Wharton'
p2736
sg7
I0
sg8
I0
sg9
I65
sg10
I1905
sg11
S'2.0'
p2737
sg13
S'src/../data/20thCenturyCorpus/2133Wharton1905.txt'
p2738
sg15
S'the house of mirth'
p2739
sg17
S'Female'
p2740
sg19
I0
sg20
S'European American'
p2741
ssS'2131'
p2742
(dp2743
g4
I0
sg5
S'Edith Wharton'
p2744
sg7
I0
sg8
I60
sg9
I0
sg10
I1911
sg11
S'1.0'
p2745
sg13
S'src/../data/20thCenturyCorpus/2131Wharton1911.txt'
p2746
sg15
S'ethan frome'
p2747
sg17
S'Female'
p2748
sg19
I0
sg20
S'European American'
p2749
ssS'951'
p2750
(dp2751
g4
I7
sg5
S'Joseph Heller'
p2752
sg7
I12
sg8
I15
sg9
I29
sg10
I1961
sg11
S'4.0'
p2753
sg13
S'src/../data/20thCenturyCorpus/951Heller1961.txt'
p2754
sg15
S'catch-22'
p2755
sg17
S'Male'
p2756
sg19
I0
sg20
S'European American'
p2757
ssS'41'
p2758
(dp2759
g4
I0
sg5
S'Richard Adams'
p2760
sg7
I79
sg8
I0
sg9
I0
sg10
I1972
sg11
S'1.0'
p2761
sg13
S'src/../data/20thCenturyCorpus/41Adams1972.txt'
p2762
sg15
S'watership down'
p2763
sg17
S'Male'
p2764
sg19
I0
sg20
S'British'
p2765
ssS'1111'
p2766
(dp2767
g4
I0
sg5
S'Russell Janney'
p2768
sg7
I0
sg8
I0
sg9
I0
sg10
I1947
sg11
S'1.0'
p2769
sg13
S'src/../data/20thCenturyCorpus/1111Janney1947.txt'
p2770
sg15
S'the miracle of the bells'
p2771
sg17
S'Male'
p2772
sg19
I32
sg20
S'European American'
p2773
ssS'471'
p2774
(dp2775
g4
I0
sg5
S'James Gould Cozzens'
p2776
sg7
I0
sg8
I0
sg9
I0
sg10
I1957
sg11
S'1.0'
p2777
sg13
S'src/../data/20thCenturyCorpus/471Cozzens1957.txt'
p2778
sg15
S'by love possessed'
p2779
sg17
S'Male'
p2780
sg19
I41
sg20
S'European American'
p2781
ssS'1441'
p2782
(dp2783
g4
I17
sg5
S'Carson McCullers'
p2784
sg7
I52
sg8
I0
sg9
I0
sg10
I1940
sg11
S'2.0'
p2785
sg13
S'src/../data/20thCenturyCorpus/1441McCullers1940.txt'
p2786
sg15
S'the heart is a lonely hunter'
p2787
sg17
S'Female'
p2788
sg19
I0
sg20
S'European American'
p2789
ssS'1291'
p2790
(dp2791
g4
I0
sg5
S'John le Carre'
p2792
sg7
I0
sg8
I0
sg9
I0
sg10
I1964
sg11
S'1.0'
p2793
sg13
S'src/../data/20thCenturyCorpus/1291Cornwell1963.txt'
p2794
sg15
S'the spy who came in from the cold'
p2795
sg17
S'Male'
p2796
sg19
I48
sg20
S'British'
p2797
ssS'481'
p2798
(dp2799
g4
I0
sg5
S'A. J. Cronin'
p2800
sg7
I0
sg8
I0
sg9
I0
sg10
I1941
sg11
S'1.0'
p2801
sg13
S'src/../data/20thCenturyCorpus/481Cronin1941.txt'
p2802
sg15
S'the keys of the kingdom'
p2803
sg17
S'Male'
p2804
sg19
I26
sg20
S'British'
p2805
ssS'1803'
p2806
(dp2807
g4
I0
sg5
S'Nevil Shute'
p2808
sg7
I27
sg8
I0
sg9
I0
sg10
I1960
sg11
S'1.0'
p2809
sg13
S'src/../data/20thCenturyCorpus/1803Shute1960.txt'
p2810
sg15
S'trustee from the toolroom'
p2811
sg17
S'Male'
p2812
sg19
I0
sg20
S'British'
p2813
ssS'1802'
p2814
(dp2815
g4
I0
sg5
S'Nevil Shute'
p2816
sg7
I56
sg8
I0
sg9
I0
sg10
I1957
sg11
S'1.0'
p2817
sg13
S'src/../data/20thCenturyCorpus/1802Shute1957.txt'
p2818
sg15
S'on the beach'
p2819
sg17
S'Male'
p2820
sg19
I0
sg20
S'British'
p2821
ssS'1801'
p2822
(dp2823
g4
I0
sg5
S'Nevil Shute'
p2824
sg7
I17
sg8
I0
sg9
I0
sg10
I1950
sg11
S'1.0'
p2825
sg13
S'src/../data/20thCenturyCorpus/1801Shute1950.txt'
p2826
sg15
S'a town like alice'
p2827
sg17
S'Male'
p2828
sg19
I0
sg20
S'British'
p2829
ssS'2002'
p2830
(dp2831
g4
I0
sg5
S'Leon Uris'
p2832
sg7
I0
sg8
I0
sg9
I0
sg10
I1976
sg11
S'1.0'
p2833
sg13
S'src/../data/20thCenturyCorpus/2002Uris1976.txt'
p2834
sg15
S'trinity'
p2835
sg17
S'Male'
p2836
sg19
I59
sg20
S'European American'
p2837
ssS'2001'
p2838
(dp2839
g4
I0
sg5
S'Leon Uris'
p2840
sg7
I0
sg8
I0
sg9
I0
sg10
I1959
sg11
S'1.0'
p2841
sg13
S'src/../data/20thCenturyCorpus/2001Uris1958.txt'
p2842
sg15
S'exodus'
p2843
sg17
S'Male'
p2844
sg19
I43
sg20
S'European American'
p2845
ssS'1361'
p2846
(dp2847
g4
I0
sg5
S'H.P. Lovecraft'
p2848
sg7
I45
sg8
I0
sg9
I0
sg10
I1936
sg11
S'1.0'
p2849
sg13
S'src/../data/20thCenturyCorpus/1361Lovecraft1936.txt'
p2850
sg15
S'at the mountains of madness'
p2851
sg17
S'Male'
p2852
sg19
I0
sg20
S'European American'
p2853
ss.